---
triple:          'arm64-apple-darwin'
binary-path:     main
relocations:
  - { offsetInCU: 0x2F94, offset: 0x2F94, size: 0x8, addend: 0x0, symName: __ZNSt3__124__put_character_sequenceB8ue170006IcNS_11char_traitsIcEEEERNS_13basic_ostreamIT_T0_EES7_PKS4_m, symObjAddr: 0x17A4, symBinAddr: 0x1000029E4, symSize: 0x1EC }
  - { offsetInCU: 0x5CF3, offset: 0x5CF3, size: 0x8, addend: 0x0, symName: __ZNSt3__17advanceB8ue170006INS_21__tree_const_iteratorIiPNS_11__tree_nodeIiPvEElEEllvEEvRT_T0_, symObjAddr: 0x35BC, symBinAddr: 0x1000047FC, symSize: 0x38 }
  - { offsetInCU: 0x7807, offset: 0x7807, size: 0x8, addend: 0x0, symName: __ZNSt3__17advanceB8ue170006INS_21__tree_const_iteratorI6PersonPNS_11__tree_nodeIS2_PvEElEEllvEEvRT_T0_, symObjAddr: 0x6578, symBinAddr: 0x1000077B8, symSize: 0x38 }
  - { offsetInCU: 0x9270, offset: 0x9270, size: 0x8, addend: 0x0, symName: __ZNSt3__17advanceB8ue170006INS_21__tree_const_iteratorINS_12basic_stringIcNS_11char_traitsIcEENS_9allocatorIcEEEEPNS_11__tree_nodeIS7_PvEElEEllvEEvRT_T0_, symObjAddr: 0x9268, symBinAddr: 0x10000A4A8, symSize: 0x38 }
  - { offsetInCU: 0x9E13, offset: 0x9E13, size: 0x8, addend: 0x0, symName: __ZNSt3__1lsB8ue170006INS_11char_traitsIcEEEERNS_13basic_ostreamIcT_EES6_PKc, symObjAddr: 0x48, symBinAddr: 0x100001288, symSize: 0x48 }
  - { offsetInCU: 0x9E59, offset: 0x9E59, size: 0x8, addend: 0x0, symName: __ZNSt3__1lsB8ue170006IcNS_11char_traitsIcEENS_9allocatorIcEEEERNS_13basic_ostreamIT_T0_EES9_RKNS_12basic_stringIS6_S7_T1_EE, symObjAddr: 0x90, symBinAddr: 0x1000012D0, symSize: 0x4C }
  - { offsetInCU: 0x9EB1, offset: 0x9EB1, size: 0x8, addend: 0x0, symName: __ZNSt3__14endlB8ue170006IcNS_11char_traitsIcEEEERNS_13basic_ostreamIT_T0_EES7_, symObjAddr: 0x400, symBinAddr: 0x100001640, symSize: 0x58 }
  - { offsetInCU: 0xAC52, offset: 0xAC52, size: 0x8, addend: 0x0, symName: __ZNSt3__1neB8ue170006ERKNS_21__tree_const_iteratorIiPNS_11__tree_nodeIiPvEElEES7_, symObjAddr: 0x67C, symBinAddr: 0x1000018BC, symSize: 0x34 }
  - { offsetInCU: 0xB46E, offset: 0xB46E, size: 0x8, addend: 0x0, symName: __ZNSt3__1neB8ue170006ERKNS_21__tree_const_iteratorI6PersonPNS_11__tree_nodeIS1_PvEElEES8_, symObjAddr: 0xF04, symBinAddr: 0x100002144, symSize: 0x34 }
  - { offsetInCU: 0xC194, offset: 0xC194, size: 0x8, addend: 0x0, symName: __ZNSt3__19boolalphaB8ue170006ERNS_8ios_baseE, symObjAddr: 0x149C, symBinAddr: 0x1000026DC, symSize: 0x2C }
  - { offsetInCU: 0xC1C2, offset: 0xC1C2, size: 0x8, addend: 0x0, symName: __ZNSt3__118__constexpr_strlenB8ue170006EPKc, symObjAddr: 0x1774, symBinAddr: 0x1000029B4, symSize: 0x24 }
  - { offsetInCU: 0xC1EE, offset: 0xC1EE, size: 0x8, addend: 0x0, symName: __ZNSt3__116__pad_and_outputB8ue170006IcNS_11char_traitsIcEEEENS_19ostreambuf_iteratorIT_T0_EES6_PKS4_S8_S8_RNS_8ios_baseES4_, symObjAddr: 0x1A28, symBinAddr: 0x100002C68, symSize: 0x240 }
  - { offsetInCU: 0xC2BD, offset: 0xC2BD, size: 0x8, addend: 0x0, symName: __ZNSt3__112__to_addressB8ue170006IcEEPT_S2_, symObjAddr: 0x1E98, symBinAddr: 0x1000030D8, symSize: 0x14 }
  - { offsetInCU: 0xC325, offset: 0xC325, size: 0x8, addend: 0x0, symName: __ZNSt3__19use_facetB8ue170006INS_5ctypeIcEEEERKT_RKNS_6localeE, symObjAddr: 0x2150, symBinAddr: 0x100003390, symSize: 0x2C }
  - { offsetInCU: 0xC7F2, offset: 0xC7F2, size: 0x8, addend: 0x0, symName: __ZNSt3__112__to_addressB8ue170006IKcEEPT_S3_, symObjAddr: 0x21E8, symBinAddr: 0x100003428, symSize: 0x14 }
  - { offsetInCU: 0xC88D, offset: 0xC88D, size: 0x8, addend: 0x0, symName: __ZNSt3__1eqB8ue170006ERKNS_21__tree_const_iteratorIiPNS_11__tree_nodeIiPvEElEES7_, symObjAddr: 0x3064, symBinAddr: 0x1000042A4, symSize: 0x30 }
  - { offsetInCU: 0xC8CA, offset: 0xC8CA, size: 0x8, addend: 0x0, symName: __ZNSt3__14nextB8ue170006INS_21__tree_const_iteratorIiPNS_11__tree_nodeIiPvEElEEEENS_9enable_ifIXsr29__has_input_iterator_categoryIT_EE5valueES8_E4typeES8_NS_15iterator_traitsIS8_E15difference_typeE, symObjAddr: 0x3348, symBinAddr: 0x100004588, symSize: 0x3C }
  - { offsetInCU: 0xC90D, offset: 0xC90D, size: 0x8, addend: 0x0, symName: __ZNSt3__116__tree_prev_iterB8ue170006IPNS_16__tree_node_baseIPvEEPNS_15__tree_end_nodeIS4_EEEET_T0_, symObjAddr: 0x3448, symBinAddr: 0x100004688, symSize: 0xA4 }
  - { offsetInCU: 0xC959, offset: 0xC959, size: 0x8, addend: 0x0, symName: __ZNSt3__110__tree_maxB8ue170006IPNS_16__tree_node_baseIPvEEEET_S5_, symObjAddr: 0x34EC, symBinAddr: 0x10000472C, symSize: 0x40 }
  - { offsetInCU: 0xC98E, offset: 0xC98E, size: 0x8, addend: 0x0, symName: __ZNSt3__120__tree_is_left_childB8ue170006IPNS_16__tree_node_baseIPvEEEEbT_, symObjAddr: 0x352C, symBinAddr: 0x10000476C, symSize: 0x2C }
  - { offsetInCU: 0xC9C3, offset: 0xC9C3, size: 0x8, addend: 0x0, symName: __ZNSt3__121__convert_to_integralB8ue170006El, symObjAddr: 0x35F4, symBinAddr: 0x100004834, symSize: 0x14 }
  - { offsetInCU: 0xC9EF, offset: 0xC9EF, size: 0x8, addend: 0x0, symName: __ZNSt3__19__advanceB8ue170006INS_21__tree_const_iteratorIiPNS_11__tree_nodeIiPvEElEEEEvRT_NS_15iterator_traitsIS7_E15difference_typeENS_26bidirectional_iterator_tagE, symObjAddr: 0x3608, symBinAddr: 0x100004848, symSize: 0xA4 }
  - { offsetInCU: 0xCA38, offset: 0xCA38, size: 0x8, addend: 0x0, symName: __ZNSt3__116__tree_next_iterB8ue170006IPNS_15__tree_end_nodeIPNS_16__tree_node_baseIPvEEEES5_EET_T0_, symObjAddr: 0x36E4, symBinAddr: 0x100004924, symSize: 0x80 }
  - { offsetInCU: 0xCA76, offset: 0xCA76, size: 0x8, addend: 0x0, symName: __ZNSt3__110__tree_minB8ue170006IPNS_16__tree_node_baseIPvEEEET_S5_, symObjAddr: 0x3764, symBinAddr: 0x1000049A4, symSize: 0x40 }
  - { offsetInCU: 0xCAC9, offset: 0xCAC9, size: 0x8, addend: 0x0, symName: __ZNSt3__117__libcpp_allocateB8ue170006Emm, symObjAddr: 0x39F8, symBinAddr: 0x100004C38, symSize: 0x60 }
  - { offsetInCU: 0xCB23, offset: 0xCB23, size: 0x8, addend: 0x0, symName: __ZNSt3__124__is_overaligned_for_newB8ue170006Em, symObjAddr: 0x3A6C, symBinAddr: 0x100004CAC, symSize: 0x20 }
  - { offsetInCU: 0xCB51, offset: 0xCB51, size: 0x8, addend: 0x0, symName: __ZNSt3__121__libcpp_operator_newB8ue170006IJmSt11align_val_tEEEPvDpT_, symObjAddr: 0x3A8C, symBinAddr: 0x100004CCC, symSize: 0x2C }
  - { offsetInCU: 0xCB9E, offset: 0xCB9E, size: 0x8, addend: 0x0, symName: __ZNSt3__121__libcpp_operator_newB8ue170006IJmEEEPvDpT_, symObjAddr: 0x3AB8, symBinAddr: 0x100004CF8, symSize: 0x24 }
  - { offsetInCU: 0xCBD7, offset: 0xCBD7, size: 0x8, addend: 0x0, symName: __ZNSt3__127__tree_balance_after_insertB8ue170006IPNS_16__tree_node_baseIPvEEEEvT_S5_, symObjAddr: 0x3CC4, symBinAddr: 0x100004F04, symSize: 0x27C }
  - { offsetInCU: 0xCC53, offset: 0xCC53, size: 0x8, addend: 0x0, symName: __ZNSt3__118__tree_left_rotateB8ue170006IPNS_16__tree_node_baseIPvEEEEvT_, symObjAddr: 0x3F68, symBinAddr: 0x1000051A8, symSize: 0xD8 }
  - { offsetInCU: 0xCC95, offset: 0xCC95, size: 0x8, addend: 0x0, symName: __ZNSt3__119__tree_right_rotateB8ue170006IPNS_16__tree_node_baseIPvEEEEvT_, symObjAddr: 0x4040, symBinAddr: 0x100005280, symSize: 0xCC }
  - { offsetInCU: 0xCCD7, offset: 0xCCD7, size: 0x8, addend: 0x0, symName: __ZNSt3__119__libcpp_deallocateB8ue170006EPvmm, symObjAddr: 0x435C, symBinAddr: 0x10000559C, symSize: 0x60 }
  - { offsetInCU: 0xCD3C, offset: 0xCD3C, size: 0x8, addend: 0x0, symName: __ZNSt3__127__do_deallocate_handle_sizeB8ue170006IJSt11align_val_tEEEvPvmDpT_, symObjAddr: 0x43BC, symBinAddr: 0x1000055FC, symSize: 0x30 }
  - { offsetInCU: 0xCD8F, offset: 0xCD8F, size: 0x8, addend: 0x0, symName: __ZNSt3__127__do_deallocate_handle_sizeB8ue170006IJEEEvPvmDpT_, symObjAddr: 0x43EC, symBinAddr: 0x10000562C, symSize: 0x28 }
  - { offsetInCU: 0xCDCD, offset: 0xCDCD, size: 0x8, addend: 0x0, symName: __ZNSt3__124__libcpp_operator_deleteB8ue170006IJPvSt11align_val_tEEEvDpT_, symObjAddr: 0x4414, symBinAddr: 0x100005654, symSize: 0x2C }
  - { offsetInCU: 0xCE16, offset: 0xCE16, size: 0x8, addend: 0x0, symName: __ZNSt3__124__libcpp_operator_deleteB8ue170006IJPvEEEvDpT_, symObjAddr: 0x4440, symBinAddr: 0x100005680, symSize: 0x24 }
  - { offsetInCU: 0xCE4B, offset: 0xCE4B, size: 0x8, addend: 0x0, symName: __ZNSt3__111__tree_leafB8ue170006IPNS_16__tree_node_baseIPvEEEET_S5_, symObjAddr: 0x4B6C, symBinAddr: 0x100005DAC, symSize: 0x70 }
  - { offsetInCU: 0xCE80, offset: 0xCE80, size: 0x8, addend: 0x0, symName: __ZNSt3__1neB8ue170006ERKNS_15__tree_iteratorIiPNS_11__tree_nodeIiPvEElEES7_, symObjAddr: 0x5354, symBinAddr: 0x100006594, symSize: 0x34 }
  - { offsetInCU: 0xCEBD, offset: 0xCEBD, size: 0x8, addend: 0x0, symName: __ZNSt3__1eqB8ue170006ERKNS_15__tree_iteratorIiPNS_11__tree_nodeIiPvEElEES7_, symObjAddr: 0x53B0, symBinAddr: 0x1000065F0, symSize: 0x30 }
  - { offsetInCU: 0xCEFA, offset: 0xCEFA, size: 0x8, addend: 0x0, symName: __ZNSt3__1eqB8ue170006ERKNS_21__tree_const_iteratorI6PersonPNS_11__tree_nodeIS1_PvEElEES8_, symObjAddr: 0x60F0, symBinAddr: 0x100007330, symSize: 0x30 }
  - { offsetInCU: 0xCF37, offset: 0xCF37, size: 0x8, addend: 0x0, symName: __ZNSt3__14nextB8ue170006INS_21__tree_const_iteratorI6PersonPNS_11__tree_nodeIS2_PvEElEEEENS_9enable_ifIXsr29__has_input_iterator_categoryIT_EE5valueES9_E4typeES9_NS_15iterator_traitsIS9_E15difference_typeE, symObjAddr: 0x63FC, symBinAddr: 0x10000763C, symSize: 0x3C }
  - { offsetInCU: 0xCF7A, offset: 0xCF7A, size: 0x8, addend: 0x0, symName: __ZNSt3__19__advanceB8ue170006INS_21__tree_const_iteratorI6PersonPNS_11__tree_nodeIS2_PvEElEEEEvRT_NS_15iterator_traitsIS8_E15difference_typeENS_26bidirectional_iterator_tagE, symObjAddr: 0x65B0, symBinAddr: 0x1000077F0, symSize: 0xA4 }
  - { offsetInCU: 0xCFE1, offset: 0xCFE1, size: 0x8, addend: 0x0, symName: __ZNSt3__1neB8ue170006ERKNS_15__tree_iteratorI6PersonPNS_11__tree_nodeIS1_PvEElEES8_, symObjAddr: 0x74A4, symBinAddr: 0x1000086E4, symSize: 0x34 }
  - { offsetInCU: 0xD01E, offset: 0xD01E, size: 0x8, addend: 0x0, symName: __ZNSt3__1eqB8ue170006ERKNS_15__tree_iteratorI6PersonPNS_11__tree_nodeIS1_PvEElEES8_, symObjAddr: 0x7500, symBinAddr: 0x100008740, symSize: 0x30 }
  - { offsetInCU: 0xD05B, offset: 0xD05B, size: 0x8, addend: 0x0, symName: __ZNSt3__113__tree_removeB8ue170006IPNS_16__tree_node_baseIPvEEEEvT_S5_, symObjAddr: 0x76CC, symBinAddr: 0x10000890C, symSize: 0x6E0 }
  - { offsetInCU: 0xD0D9, offset: 0xD0D9, size: 0x8, addend: 0x0, symName: __ZNSt3__111__tree_nextB8ue170006IPNS_16__tree_node_baseIPvEEEET_S5_, symObjAddr: 0x7DAC, symBinAddr: 0x100008FEC, symSize: 0x80 }
  - { offsetInCU: 0xD10E, offset: 0xD10E, size: 0x8, addend: 0x0, symName: __ZNSt3__1eqB8ue170006ERKNS_21__tree_const_iteratorINS_12basic_stringIcNS_11char_traitsIcEENS_9allocatorIcEEEEPNS_11__tree_nodeIS6_PvEElEESD_, symObjAddr: 0x8AB8, symBinAddr: 0x100009CF8, symSize: 0x30 }
  - { offsetInCU: 0xD14B, offset: 0xD14B, size: 0x8, addend: 0x0, symName: __ZNSt3__14nextB8ue170006INS_21__tree_const_iteratorINS_12basic_stringIcNS_11char_traitsIcEENS_9allocatorIcEEEEPNS_11__tree_nodeIS7_PvEElEEEENS_9enable_ifIXsr29__has_input_iterator_categoryIT_EE5valueESE_E4typeESE_NS_15iterator_traitsISE_E15difference_typeE, symObjAddr: 0x8D9C, symBinAddr: 0x100009FDC, symSize: 0x3C }
  - { offsetInCU: 0xD18E, offset: 0xD18E, size: 0x8, addend: 0x0, symName: __ZNSt3__1ltB8ue170006IcNS_11char_traitsIcEENS_9allocatorIcEEEEbRKNS_12basic_stringIT_T0_T1_EESB_, symObjAddr: 0x8E9C, symBinAddr: 0x10000A0DC, symSize: 0x38 }
  - { offsetInCU: 0xD1E6, offset: 0xD1E6, size: 0x8, addend: 0x0, symName: __ZNSt3__13minB8ue170006ImEERKT_S3_S3_, symObjAddr: 0x9100, symBinAddr: 0x10000A340, symSize: 0x2C }
  - { offsetInCU: 0xD229, offset: 0xD229, size: 0x8, addend: 0x0, symName: __ZNSt3__13minB8ue170006ImNS_6__lessIvvEEEERKT_S5_S5_T0_, symObjAddr: 0x912C, symBinAddr: 0x10000A36C, symSize: 0x54 }
  - { offsetInCU: 0xD2C8, offset: 0xD2C8, size: 0x8, addend: 0x0, symName: __ZNSt3__19__advanceB8ue170006INS_21__tree_const_iteratorINS_12basic_stringIcNS_11char_traitsIcEENS_9allocatorIcEEEEPNS_11__tree_nodeIS7_PvEElEEEEvRT_NS_15iterator_traitsISD_E15difference_typeENS_26bidirectional_iterator_tagE, symObjAddr: 0x92A0, symBinAddr: 0x10000A4E0, symSize: 0xA4 }
  - { offsetInCU: 0xD32F, offset: 0xD32F, size: 0x8, addend: 0x0, symName: __ZNSt3__1neB8ue170006ERKNS_21__tree_const_iteratorINS_12basic_stringIcNS_11char_traitsIcEENS_9allocatorIcEEEEPNS_11__tree_nodeIS6_PvEElEESD_, symObjAddr: 0x9B90, symBinAddr: 0x10000ADD0, symSize: 0x34 }
  - { offsetInCU: 0xD661, offset: 0xD661, size: 0x8, addend: 0x0, symName: __ZSt28__throw_bad_array_new_lengthB8ue170006v, symObjAddr: 0x39C4, symBinAddr: 0x100004C04, symSize: 0x34 }
  - { offsetInCU: 0x10584, offset: 0x10584, size: 0x8, addend: 0x0, symName: __ZlsRNSt3__113basic_ostreamIcNS_11char_traitsIcEEEERK6Person, symObjAddr: 0x0, symBinAddr: 0x100001240, symSize: 0x48 }
  - { offsetInCU: 0x105BE, offset: 0x105BE, size: 0x8, addend: 0x0, symName: __Z5test1v, symObjAddr: 0xDC, symBinAddr: 0x10000131C, symSize: 0x2F8 }
  - { offsetInCU: 0x105F7, offset: 0x105F7, size: 0x8, addend: 0x0, symName: __ZNSt3__113basic_ostreamIcNS_11char_traitsIcEEElsB8ue170006EPFRS3_S4_E, symObjAddr: 0x3D4, symBinAddr: 0x100001614, symSize: 0x2C }
  - { offsetInCU: 0x1074D, offset: 0x1074D, size: 0x8, addend: 0x0, symName: __ZNSt3__13setIiNS_4lessIiEENS_9allocatorIiEEEC1B8ue170006ESt16initializer_listIiERKS2_, symObjAddr: 0x458, symBinAddr: 0x100001698, symSize: 0x44 }
  - { offsetInCU: 0x10794, offset: 0x10794, size: 0x8, addend: 0x0, symName: __Z7displayIiEvRKNSt3__13setIT_NS0_4lessIS2_EENS0_9allocatorIS2_EEEE, symObjAddr: 0x49C, symBinAddr: 0x1000016DC, symSize: 0xC8 }
  - { offsetInCU: 0x10817, offset: 0x10817, size: 0x8, addend: 0x0, symName: __ZNSt3__13setIiNS_4lessIiEENS_9allocatorIiEEEaSB8ue170006ESt16initializer_listIiE, symObjAddr: 0x564, symBinAddr: 0x1000017A4, symSize: 0x60 }
  - { offsetInCU: 0x1084C, offset: 0x1084C, size: 0x8, addend: 0x0, symName: __ZNSt3__13setIiNS_4lessIiEENS_9allocatorIiEEE6insertB8ue170006EOi, symObjAddr: 0x5C4, symBinAddr: 0x100001804, symSize: 0x4C }
  - { offsetInCU: 0x10881, offset: 0x10881, size: 0x8, addend: 0x0, symName: __ZNKSt3__13setIiNS_4lessIiEENS_9allocatorIiEEE5countB8ue170006ERKi, symObjAddr: 0x610, symBinAddr: 0x100001850, symSize: 0x2C }
  - { offsetInCU: 0x108B6, offset: 0x108B6, size: 0x8, addend: 0x0, symName: __ZNSt3__13setIiNS_4lessIiEENS_9allocatorIiEEE4findB8ue170006ERKi, symObjAddr: 0x63C, symBinAddr: 0x10000187C, symSize: 0x40 }
  - { offsetInCU: 0x108EB, offset: 0x108EB, size: 0x8, addend: 0x0, symName: __ZNSt3__13setIiNS_4lessIiEENS_9allocatorIiEEE3endB8ue170006Ev, symObjAddr: 0x6B0, symBinAddr: 0x1000018F0, symSize: 0x38 }
  - { offsetInCU: 0x10911, offset: 0x10911, size: 0x8, addend: 0x0, symName: __ZNKSt3__121__tree_const_iteratorIiPNS_11__tree_nodeIiPvEElEdeB8ue170006Ev, symObjAddr: 0x6E8, symBinAddr: 0x100001928, symSize: 0x28 }
  - { offsetInCU: 0x10937, offset: 0x10937, size: 0x8, addend: 0x0, symName: __ZNSt3__13setIiNS_4lessIiEENS_9allocatorIiEEE5clearB8ue170006Ev, symObjAddr: 0x710, symBinAddr: 0x100001950, symSize: 0x24 }
  - { offsetInCU: 0x1095D, offset: 0x1095D, size: 0x8, addend: 0x0, symName: __ZNSt3__13setIiNS_4lessIiEENS_9allocatorIiEEED1B8ue170006Ev, symObjAddr: 0x734, symBinAddr: 0x100001974, symSize: 0x2C }
  - { offsetInCU: 0x10986, offset: 0x10986, size: 0x8, addend: 0x0, symName: __Z5test2v, symObjAddr: 0x760, symBinAddr: 0x1000019A0, symSize: 0x56C }
  - { offsetInCU: 0x109C4, offset: 0x109C4, size: 0x8, addend: 0x0, symName: __ZNSt3__112basic_stringIcNS_11char_traitsIcEENS_9allocatorIcEEEC1B8ue170006ILi0EEEPKc, symObjAddr: 0xCCC, symBinAddr: 0x100001F0C, symSize: 0x34 }
  - { offsetInCU: 0x10A03, offset: 0x10A03, size: 0x8, addend: 0x0, symName: __ZN6PersonC1ENSt3__112basic_stringIcNS0_11char_traitsIcEENS0_9allocatorIcEEEEi, symObjAddr: 0xD00, symBinAddr: 0x100001F40, symSize: 0x3C }
  - { offsetInCU: 0x10AC2, offset: 0x10AC2, size: 0x8, addend: 0x0, symName: __ZNSt3__13setI6PersonNS_4lessIS1_EENS_9allocatorIS1_EEEC1B8ue170006ESt16initializer_listIS1_ERKS3_, symObjAddr: 0xD3C, symBinAddr: 0x100001F7C, symSize: 0x44 }
  - { offsetInCU: 0x10B0A, offset: 0x10B0A, size: 0x8, addend: 0x0, symName: __ZN6PersonD1Ev, symObjAddr: 0xD80, symBinAddr: 0x100001FC0, symSize: 0x2C }
  - { offsetInCU: 0x10B35, offset: 0x10B35, size: 0x8, addend: 0x0, symName: __Z7displayI6PersonEvRKNSt3__13setIT_NS1_4lessIS3_EENS1_9allocatorIS3_EEEE, symObjAddr: 0xDAC, symBinAddr: 0x100001FEC, symSize: 0xC4 }
  - { offsetInCU: 0x10BD3, offset: 0x10BD3, size: 0x8, addend: 0x0, symName: __ZNSt3__13setI6PersonNS_4lessIS1_EENS_9allocatorIS1_EEE7emplaceB8ue170006IJRA6_KciEEENS_4pairINS_21__tree_const_iteratorIS1_PNS_11__tree_nodeIS1_PvEElEEbEEDpOT_, symObjAddr: 0xE70, symBinAddr: 0x1000020B0, symSize: 0x54 }
  - { offsetInCU: 0x10C27, offset: 0x10C27, size: 0x8, addend: 0x0, symName: __ZNSt3__13setI6PersonNS_4lessIS1_EENS_9allocatorIS1_EEE4findB8ue170006ERKS1_, symObjAddr: 0xEC4, symBinAddr: 0x100002104, symSize: 0x40 }
  - { offsetInCU: 0x10C5C, offset: 0x10C5C, size: 0x8, addend: 0x0, symName: __ZNSt3__13setI6PersonNS_4lessIS1_EENS_9allocatorIS1_EEE3endB8ue170006Ev, symObjAddr: 0xF38, symBinAddr: 0x100002178, symSize: 0x38 }
  - { offsetInCU: 0x10C82, offset: 0x10C82, size: 0x8, addend: 0x0, symName: __ZNSt3__13setI6PersonNS_4lessIS1_EENS_9allocatorIS1_EEE5eraseB8ue170006ENS_21__tree_const_iteratorIS1_PNS_11__tree_nodeIS1_PvEElEE, symObjAddr: 0xF70, symBinAddr: 0x1000021B0, symSize: 0x48 }
  - { offsetInCU: 0x10CB7, offset: 0x10CB7, size: 0x8, addend: 0x0, symName: __ZNSt3__13setI6PersonNS_4lessIS1_EENS_9allocatorIS1_EEED1B8ue170006Ev, symObjAddr: 0xFB8, symBinAddr: 0x1000021F8, symSize: 0x2C }
  - { offsetInCU: 0x10CE0, offset: 0x10CE0, size: 0x8, addend: 0x0, symName: __Z5test3v, symObjAddr: 0xFE4, symBinAddr: 0x100002224, symSize: 0x324 }
  - { offsetInCU: 0x10E31, offset: 0x10E31, size: 0x8, addend: 0x0, symName: __ZNSt3__13setINS_12basic_stringIcNS_11char_traitsIcEENS_9allocatorIcEEEENS_4lessIS6_EENS4_IS6_EEEC1B8ue170006ESt16initializer_listIS6_ERKS8_, symObjAddr: 0x1308, symBinAddr: 0x100002548, symSize: 0x44 }
  - { offsetInCU: 0x10E78, offset: 0x10E78, size: 0x8, addend: 0x0, symName: __Z7displayINSt3__112basic_stringIcNS0_11char_traitsIcEENS0_9allocatorIcEEEEEvRKNS0_3setIT_NS0_4lessIS8_EENS4_IS8_EEEE, symObjAddr: 0x134C, symBinAddr: 0x10000258C, symSize: 0xC4 }
  - { offsetInCU: 0x10EFB, offset: 0x10EFB, size: 0x8, addend: 0x0, symName: __ZNSt3__13setINS_12basic_stringIcNS_11char_traitsIcEENS_9allocatorIcEEEENS_4lessIS6_EENS4_IS6_EEE6insertB8ue170006EOS6_, symObjAddr: 0x1410, symBinAddr: 0x100002650, symSize: 0x4C }
  - { offsetInCU: 0x10F30, offset: 0x10F30, size: 0x8, addend: 0x0, symName: __ZNSt3__113basic_ostreamIcNS_11char_traitsIcEEElsB8ue170006EPFRNS_8ios_baseES5_E, symObjAddr: 0x145C, symBinAddr: 0x10000269C, symSize: 0x40 }
  - { offsetInCU: 0x10F64, offset: 0x10F64, size: 0x8, addend: 0x0, symName: __ZNKSt3__121__tree_const_iteratorINS_12basic_stringIcNS_11char_traitsIcEENS_9allocatorIcEEEEPNS_11__tree_nodeIS6_PvEElEdeB8ue170006Ev, symObjAddr: 0x14C8, symBinAddr: 0x100002708, symSize: 0x28 }
  - { offsetInCU: 0x10F8A, offset: 0x10F8A, size: 0x8, addend: 0x0, symName: __ZNSt3__13setINS_12basic_stringIcNS_11char_traitsIcEENS_9allocatorIcEEEENS_4lessIS6_EENS4_IS6_EEED1B8ue170006Ev, symObjAddr: 0x14F0, symBinAddr: 0x100002730, symSize: 0x2C }
  - { offsetInCU: 0x10FB4, offset: 0x10FB4, size: 0x8, addend: 0x0, symName: _main, symObjAddr: 0x151C, symBinAddr: 0x10000275C, symSize: 0x34 }
  - { offsetInCU: 0x10FCE, offset: 0x10FCE, size: 0x8, addend: 0x0, symName: __ZN6PersonC2ENSt3__112basic_stringIcNS0_11char_traitsIcEENS0_9allocatorIcEEEEi, symObjAddr: 0x1550, symBinAddr: 0x100002790, symSize: 0x40 }
  - { offsetInCU: 0x11015, offset: 0x11015, size: 0x8, addend: 0x0, symName: __ZN6PersonD2Ev, symObjAddr: 0x1590, symBinAddr: 0x1000027D0, symSize: 0x2C }
  - { offsetInCU: 0x11041, offset: 0x11041, size: 0x8, addend: 0x0, symName: __ZNSt3__18ios_base4setfB8ue170006Ej, symObjAddr: 0x15BC, symBinAddr: 0x1000027FC, symSize: 0x34 }
  - { offsetInCU: 0x11087, offset: 0x11087, size: 0x8, addend: 0x0, symName: __ZNSt3__112basic_stringIcNS_11char_traitsIcEENS_9allocatorIcEEEC2B8ue170006ILi0EEEPKc, symObjAddr: 0x15F0, symBinAddr: 0x100002830, symSize: 0x58 }
  - { offsetInCU: 0x110CB, offset: 0x110CB, size: 0x8, addend: 0x0, symName: __ZNSt3__117__compressed_pairINS_12basic_stringIcNS_11char_traitsIcEENS_9allocatorIcEEE5__repES5_EC1B8ue170006INS_18__default_init_tagESA_EEOT_OT0_, symObjAddr: 0x1648, symBinAddr: 0x100002888, symSize: 0x3C }
  - { offsetInCU: 0x11123, offset: 0x11123, size: 0x8, addend: 0x0, symName: __ZNSt3__111char_traitsIcE6lengthB8ue170006EPKc, symObjAddr: 0x1684, symBinAddr: 0x1000028C4, symSize: 0x34 }
  - { offsetInCU: 0x11146, offset: 0x11146, size: 0x8, addend: 0x0, symName: __ZNSt3__117__compressed_pairINS_12basic_stringIcNS_11char_traitsIcEENS_9allocatorIcEEE5__repES5_EC2B8ue170006INS_18__default_init_tagESA_EEOT_OT0_, symObjAddr: 0x16B8, symBinAddr: 0x1000028F8, symSize: 0x3C }
  - { offsetInCU: 0x1119E, offset: 0x1119E, size: 0x8, addend: 0x0, symName: __ZNSt3__122__compressed_pair_elemINS_12basic_stringIcNS_11char_traitsIcEENS_9allocatorIcEEE5__repELi0ELb0EEC2B8ue170006ENS_18__default_init_tagE, symObjAddr: 0x16F4, symBinAddr: 0x100002934, symSize: 0x14 }
  - { offsetInCU: 0x111D2, offset: 0x111D2, size: 0x8, addend: 0x0, symName: __ZNSt3__122__compressed_pair_elemINS_9allocatorIcEELi1ELb1EEC2B8ue170006ENS_18__default_init_tagE, symObjAddr: 0x1708, symBinAddr: 0x100002948, symSize: 0x2C }
  - { offsetInCU: 0x11206, offset: 0x11206, size: 0x8, addend: 0x0, symName: __ZNSt3__19allocatorIcEC2B8ue170006Ev, symObjAddr: 0x1734, symBinAddr: 0x100002974, symSize: 0x2C }
  - { offsetInCU: 0x11230, offset: 0x11230, size: 0x8, addend: 0x0, symName: __ZNSt3__116__non_trivial_ifILb1ENS_9allocatorIcEEEC2B8ue170006Ev, symObjAddr: 0x1760, symBinAddr: 0x1000029A0, symSize: 0x14 }
  - { offsetInCU: 0x1125A, offset: 0x1125A, size: 0x8, addend: 0x0, symName: __ZNKSt3__112basic_stringIcNS_11char_traitsIcEENS_9allocatorIcEEE4dataB8ue170006Ev, symObjAddr: 0x1990, symBinAddr: 0x100002BD0, symSize: 0x28 }
  - { offsetInCU: 0x11280, offset: 0x11280, size: 0x8, addend: 0x0, symName: __ZNKSt3__112basic_stringIcNS_11char_traitsIcEENS_9allocatorIcEEE4sizeB8ue170006Ev, symObjAddr: 0x19B8, symBinAddr: 0x100002BF8, symSize: 0x54 }
  - { offsetInCU: 0x112C4, offset: 0x112C4, size: 0x8, addend: 0x0, symName: __ZNKSt3__113basic_ostreamIcNS_11char_traitsIcEEE6sentrycvbB8ue170006Ev, symObjAddr: 0x1A0C, symBinAddr: 0x100002C4C, symSize: 0x1C }
  - { offsetInCU: 0x112EA, offset: 0x112EA, size: 0x8, addend: 0x0, symName: __ZNSt3__119ostreambuf_iteratorIcNS_11char_traitsIcEEEC1B8ue170006ERNS_13basic_ostreamIcS2_EE, symObjAddr: 0x1C68, symBinAddr: 0x100002EA8, symSize: 0x34 }
  - { offsetInCU: 0x11322, offset: 0x11322, size: 0x8, addend: 0x0, symName: __ZNKSt3__18ios_base5flagsB8ue170006Ev, symObjAddr: 0x1C9C, symBinAddr: 0x100002EDC, symSize: 0x18 }
  - { offsetInCU: 0x1134A, offset: 0x1134A, size: 0x8, addend: 0x0, symName: __ZNKSt3__19basic_iosIcNS_11char_traitsIcEEE4fillB8ue170006Ev, symObjAddr: 0x1CB4, symBinAddr: 0x100002EF4, symSize: 0x64 }
  - { offsetInCU: 0x11372, offset: 0x11372, size: 0x8, addend: 0x0, symName: __ZNKSt3__119ostreambuf_iteratorIcNS_11char_traitsIcEEE6failedB8ue170006Ev, symObjAddr: 0x1D18, symBinAddr: 0x100002F58, symSize: 0x24 }
  - { offsetInCU: 0x11398, offset: 0x11398, size: 0x8, addend: 0x0, symName: __ZNSt3__19basic_iosIcNS_11char_traitsIcEEE8setstateB8ue170006Ej, symObjAddr: 0x1D3C, symBinAddr: 0x100002F7C, symSize: 0x2C }
  - { offsetInCU: 0x113CD, offset: 0x113CD, size: 0x8, addend: 0x0, symName: __ZNKSt3__18ios_base5widthB8ue170006Ev, symObjAddr: 0x1D68, symBinAddr: 0x100002FA8, symSize: 0x18 }
  - { offsetInCU: 0x113F5, offset: 0x113F5, size: 0x8, addend: 0x0, symName: __ZNSt3__115basic_streambufIcNS_11char_traitsIcEEE5sputnB8ue170006EPKcl, symObjAddr: 0x1D80, symBinAddr: 0x100002FC0, symSize: 0x3C }
  - { offsetInCU: 0x11437, offset: 0x11437, size: 0x8, addend: 0x0, symName: __ZNSt3__112basic_stringIcNS_11char_traitsIcEENS_9allocatorIcEEEC1B8ue170006Emc, symObjAddr: 0x1DBC, symBinAddr: 0x100002FFC, symSize: 0x3C }
  - { offsetInCU: 0x1147F, offset: 0x1147F, size: 0x8, addend: 0x0, symName: __ZNSt3__112basic_stringIcNS_11char_traitsIcEENS_9allocatorIcEEE4dataB8ue170006Ev, symObjAddr: 0x1DF8, symBinAddr: 0x100003038, symSize: 0x28 }
  - { offsetInCU: 0x114A5, offset: 0x114A5, size: 0x8, addend: 0x0, symName: __ZNSt3__18ios_base5widthB8ue170006El, symObjAddr: 0x1E20, symBinAddr: 0x100003060, symSize: 0x2C }
  - { offsetInCU: 0x114EB, offset: 0x114EB, size: 0x8, addend: 0x0, symName: __ZNSt3__112basic_stringIcNS_11char_traitsIcEENS_9allocatorIcEEEC2B8ue170006Emc, symObjAddr: 0x1E4C, symBinAddr: 0x10000308C, symSize: 0x4C }
  - { offsetInCU: 0x11533, offset: 0x11533, size: 0x8, addend: 0x0, symName: __ZNSt3__112basic_stringIcNS_11char_traitsIcEENS_9allocatorIcEEE13__get_pointerB8ue170006Ev, symObjAddr: 0x1EAC, symBinAddr: 0x1000030EC, symSize: 0x54 }
  - { offsetInCU: 0x11559, offset: 0x11559, size: 0x8, addend: 0x0, symName: __ZNKSt3__112basic_stringIcNS_11char_traitsIcEENS_9allocatorIcEEE9__is_longB8ue170006Ev, symObjAddr: 0x1F00, symBinAddr: 0x100003140, symSize: 0x38 }
  - { offsetInCU: 0x1157F, offset: 0x1157F, size: 0x8, addend: 0x0, symName: __ZNSt3__112basic_stringIcNS_11char_traitsIcEENS_9allocatorIcEEE18__get_long_pointerB8ue170006Ev, symObjAddr: 0x1F38, symBinAddr: 0x100003178, symSize: 0x28 }
  - { offsetInCU: 0x115A5, offset: 0x115A5, size: 0x8, addend: 0x0, symName: __ZNSt3__112basic_stringIcNS_11char_traitsIcEENS_9allocatorIcEEE19__get_short_pointerB8ue170006Ev, symObjAddr: 0x1F60, symBinAddr: 0x1000031A0, symSize: 0x28 }
  - { offsetInCU: 0x115CB, offset: 0x115CB, size: 0x8, addend: 0x0, symName: __ZNKSt3__117__compressed_pairINS_12basic_stringIcNS_11char_traitsIcEENS_9allocatorIcEEE5__repES5_E5firstB8ue170006Ev, symObjAddr: 0x1F88, symBinAddr: 0x1000031C8, symSize: 0x24 }
  - { offsetInCU: 0x115F1, offset: 0x115F1, size: 0x8, addend: 0x0, symName: __ZNKSt3__122__compressed_pair_elemINS_12basic_stringIcNS_11char_traitsIcEENS_9allocatorIcEEE5__repELi0ELb0EE5__getB8ue170006Ev, symObjAddr: 0x1FAC, symBinAddr: 0x1000031EC, symSize: 0x14 }
  - { offsetInCU: 0x11617, offset: 0x11617, size: 0x8, addend: 0x0, symName: __ZNSt3__117__compressed_pairINS_12basic_stringIcNS_11char_traitsIcEENS_9allocatorIcEEE5__repES5_E5firstB8ue170006Ev, symObjAddr: 0x1FC0, symBinAddr: 0x100003200, symSize: 0x24 }
  - { offsetInCU: 0x1163D, offset: 0x1163D, size: 0x8, addend: 0x0, symName: __ZNSt3__122__compressed_pair_elemINS_12basic_stringIcNS_11char_traitsIcEENS_9allocatorIcEEE5__repELi0ELb0EE5__getB8ue170006Ev, symObjAddr: 0x1FE4, symBinAddr: 0x100003224, symSize: 0x14 }
  - { offsetInCU: 0x11663, offset: 0x11663, size: 0x8, addend: 0x0, symName: __ZNSt3__114pointer_traitsIPcE10pointer_toB8ue170006ERc, symObjAddr: 0x1FF8, symBinAddr: 0x100003238, symSize: 0x14 }
  - { offsetInCU: 0x11686, offset: 0x11686, size: 0x8, addend: 0x0, symName: __ZNSt3__119ostreambuf_iteratorIcNS_11char_traitsIcEEEC2B8ue170006ERNS_13basic_ostreamIcS2_EE, symObjAddr: 0x200C, symBinAddr: 0x10000324C, symSize: 0x54 }
  - { offsetInCU: 0x116BE, offset: 0x116BE, size: 0x8, addend: 0x0, symName: __ZNKSt3__19basic_iosIcNS_11char_traitsIcEEE5rdbufB8ue170006Ev, symObjAddr: 0x2060, symBinAddr: 0x1000032A0, symSize: 0x24 }
  - { offsetInCU: 0x116E6, offset: 0x116E6, size: 0x8, addend: 0x0, symName: __ZNKSt3__18ios_base5rdbufB8ue170006Ev, symObjAddr: 0x2084, symBinAddr: 0x1000032C4, symSize: 0x18 }
  - { offsetInCU: 0x1170C, offset: 0x1170C, size: 0x8, addend: 0x0, symName: __ZNSt3__111char_traitsIcE11eq_int_typeB8ue170006Eii, symObjAddr: 0x209C, symBinAddr: 0x1000032DC, symSize: 0x28 }
  - { offsetInCU: 0x1173F, offset: 0x1173F, size: 0x8, addend: 0x0, symName: __ZNSt3__111char_traitsIcE3eofB8ue170006Ev, symObjAddr: 0x20C4, symBinAddr: 0x100003304, symSize: 0x8 }
  - { offsetInCU: 0x11753, offset: 0x11753, size: 0x8, addend: 0x0, symName: __ZNKSt3__19basic_iosIcNS_11char_traitsIcEEE5widenB8ue170006Ec, symObjAddr: 0x20CC, symBinAddr: 0x10000330C, symSize: 0x84 }
  - { offsetInCU: 0x117C1, offset: 0x117C1, size: 0x8, addend: 0x0, symName: __ZNKSt3__15ctypeIcE5widenB8ue170006Ec, symObjAddr: 0x217C, symBinAddr: 0x1000033BC, symSize: 0x38 }
  - { offsetInCU: 0x117F6, offset: 0x117F6, size: 0x8, addend: 0x0, symName: __ZNSt3__18ios_base8setstateB8ue170006Ej, symObjAddr: 0x21B4, symBinAddr: 0x1000033F4, symSize: 0x34 }
  - { offsetInCU: 0x1182D, offset: 0x1182D, size: 0x8, addend: 0x0, symName: __ZNKSt3__112basic_stringIcNS_11char_traitsIcEENS_9allocatorIcEEE13__get_pointerB8ue170006Ev, symObjAddr: 0x21FC, symBinAddr: 0x10000343C, symSize: 0x54 }
  - { offsetInCU: 0x11853, offset: 0x11853, size: 0x8, addend: 0x0, symName: __ZNKSt3__112basic_stringIcNS_11char_traitsIcEENS_9allocatorIcEEE18__get_long_pointerB8ue170006Ev, symObjAddr: 0x2250, symBinAddr: 0x100003490, symSize: 0x28 }
  - { offsetInCU: 0x11879, offset: 0x11879, size: 0x8, addend: 0x0, symName: __ZNKSt3__112basic_stringIcNS_11char_traitsIcEENS_9allocatorIcEEE19__get_short_pointerB8ue170006Ev, symObjAddr: 0x2278, symBinAddr: 0x1000034B8, symSize: 0x28 }
  - { offsetInCU: 0x1189F, offset: 0x1189F, size: 0x8, addend: 0x0, symName: __ZNSt3__114pointer_traitsIPKcE10pointer_toB8ue170006ERS1_, symObjAddr: 0x22A0, symBinAddr: 0x1000034E0, symSize: 0x14 }
  - { offsetInCU: 0x118C2, offset: 0x118C2, size: 0x8, addend: 0x0, symName: __ZNKSt3__112basic_stringIcNS_11char_traitsIcEENS_9allocatorIcEEE15__get_long_sizeB8ue170006Ev, symObjAddr: 0x22B4, symBinAddr: 0x1000034F4, symSize: 0x28 }
  - { offsetInCU: 0x118E8, offset: 0x118E8, size: 0x8, addend: 0x0, symName: __ZNKSt3__112basic_stringIcNS_11char_traitsIcEENS_9allocatorIcEEE16__get_short_sizeB8ue170006Ev, symObjAddr: 0x22DC, symBinAddr: 0x10000351C, symSize: 0x34 }
  - { offsetInCU: 0x1190E, offset: 0x1190E, size: 0x8, addend: 0x0, symName: __ZNSt3__13setIiNS_4lessIiEENS_9allocatorIiEEEC2B8ue170006ESt16initializer_listIiERKS2_, symObjAddr: 0x2310, symBinAddr: 0x100003550, symSize: 0x94 }
  - { offsetInCU: 0x11956, offset: 0x11956, size: 0x8, addend: 0x0, symName: __ZNSt3__16__treeIiNS_4lessIiEENS_9allocatorIiEEEC1ERKS2_, symObjAddr: 0x23A4, symBinAddr: 0x1000035E4, symSize: 0x34 }
  - { offsetInCU: 0x11991, offset: 0x11991, size: 0x8, addend: 0x0, symName: __ZNSt3__13setIiNS_4lessIiEENS_9allocatorIiEEE6insertB8ue170006IPKiEEvT_S9_, symObjAddr: 0x23D8, symBinAddr: 0x100003618, symSize: 0x80 }
  - { offsetInCU: 0x119FB, offset: 0x119FB, size: 0x8, addend: 0x0, symName: __ZNKSt16initializer_listIiE5beginB8ue170006Ev, symObjAddr: 0x2458, symBinAddr: 0x100003698, symSize: 0x18 }
  - { offsetInCU: 0x11A21, offset: 0x11A21, size: 0x8, addend: 0x0, symName: __ZNKSt16initializer_listIiE3endB8ue170006Ev, symObjAddr: 0x2470, symBinAddr: 0x1000036B0, symSize: 0x20 }
  - { offsetInCU: 0x11A47, offset: 0x11A47, size: 0x8, addend: 0x0, symName: __ZNSt3__16__treeIiNS_4lessIiEENS_9allocatorIiEEED1Ev, symObjAddr: 0x2490, symBinAddr: 0x1000036D0, symSize: 0x2C }
  - { offsetInCU: 0x11A73, offset: 0x11A73, size: 0x8, addend: 0x0, symName: __ZNSt3__16__treeIiNS_4lessIiEENS_9allocatorIiEEEC2ERKS2_, symObjAddr: 0x24BC, symBinAddr: 0x1000036FC, symSize: 0x7C }
  - { offsetInCU: 0x11AAE, offset: 0x11AAE, size: 0x8, addend: 0x0, symName: __ZNSt3__117__compressed_pairINS_15__tree_end_nodeIPNS_16__tree_node_baseIPvEEEENS_9allocatorINS_11__tree_nodeIiS3_EEEEEC1B8ue170006ILb1EvEEv, symObjAddr: 0x2538, symBinAddr: 0x100003778, symSize: 0x2C }
  - { offsetInCU: 0x11AE3, offset: 0x11AE3, size: 0x8, addend: 0x0, symName: __ZNSt3__117__compressed_pairImNS_4lessIiEEEC1B8ue170006IiRKS2_EEOT_OT0_, symObjAddr: 0x2564, symBinAddr: 0x1000037A4, symSize: 0x3C }
  - { offsetInCU: 0x11B3B, offset: 0x11B3B, size: 0x8, addend: 0x0, symName: __ZNSt3__16__treeIiNS_4lessIiEENS_9allocatorIiEEE10__end_nodeB8ue170006Ev, symObjAddr: 0x25A0, symBinAddr: 0x1000037E0, symSize: 0x2C }
  - { offsetInCU: 0x11B61, offset: 0x11B61, size: 0x8, addend: 0x0, symName: __ZNSt3__16__treeIiNS_4lessIiEENS_9allocatorIiEEE12__begin_nodeB8ue170006Ev, symObjAddr: 0x25CC, symBinAddr: 0x10000380C, symSize: 0x14 }
  - { offsetInCU: 0x11B87, offset: 0x11B87, size: 0x8, addend: 0x0, symName: __ZNSt3__117__compressed_pairINS_15__tree_end_nodeIPNS_16__tree_node_baseIPvEEEENS_9allocatorINS_11__tree_nodeIiS3_EEEEEC2B8ue170006ILb1EvEEv, symObjAddr: 0x25E0, symBinAddr: 0x100003820, symSize: 0x34 }
  - { offsetInCU: 0x11BBC, offset: 0x11BBC, size: 0x8, addend: 0x0, symName: __ZNSt3__122__compressed_pair_elemINS_15__tree_end_nodeIPNS_16__tree_node_baseIPvEEEELi0ELb0EEC2B8ue170006ENS_16__value_init_tagE, symObjAddr: 0x2614, symBinAddr: 0x100003854, symSize: 0x2C }
  - { offsetInCU: 0x11BF0, offset: 0x11BF0, size: 0x8, addend: 0x0, symName: __ZNSt3__122__compressed_pair_elemINS_9allocatorINS_11__tree_nodeIiPvEEEELi1ELb1EEC2B8ue170006ENS_16__value_init_tagE, symObjAddr: 0x2640, symBinAddr: 0x100003880, symSize: 0x2C }
  - { offsetInCU: 0x11C24, offset: 0x11C24, size: 0x8, addend: 0x0, symName: __ZNSt3__115__tree_end_nodeIPNS_16__tree_node_baseIPvEEEC1B8ue170006Ev, symObjAddr: 0x266C, symBinAddr: 0x1000038AC, symSize: 0x2C }
  - { offsetInCU: 0x11C4E, offset: 0x11C4E, size: 0x8, addend: 0x0, symName: __ZNSt3__115__tree_end_nodeIPNS_16__tree_node_baseIPvEEEC2B8ue170006Ev, symObjAddr: 0x2698, symBinAddr: 0x1000038D8, symSize: 0x18 }
  - { offsetInCU: 0x11C78, offset: 0x11C78, size: 0x8, addend: 0x0, symName: __ZNSt3__19allocatorINS_11__tree_nodeIiPvEEEC2B8ue170006Ev, symObjAddr: 0x26B0, symBinAddr: 0x1000038F0, symSize: 0x2C }
  - { offsetInCU: 0x11CA2, offset: 0x11CA2, size: 0x8, addend: 0x0, symName: __ZNSt3__116__non_trivial_ifILb1ENS_9allocatorINS_11__tree_nodeIiPvEEEEEC2B8ue170006Ev, symObjAddr: 0x26DC, symBinAddr: 0x10000391C, symSize: 0x14 }
  - { offsetInCU: 0x11CCC, offset: 0x11CCC, size: 0x8, addend: 0x0, symName: __ZNSt3__117__compressed_pairImNS_4lessIiEEEC2B8ue170006IiRKS2_EEOT_OT0_, symObjAddr: 0x26F0, symBinAddr: 0x100003930, symSize: 0x44 }
  - { offsetInCU: 0x11D24, offset: 0x11D24, size: 0x8, addend: 0x0, symName: __ZNSt3__122__compressed_pair_elemImLi0ELb0EEC2B8ue170006IivEEOT_, symObjAddr: 0x2734, symBinAddr: 0x100003974, symSize: 0x24 }
  - { offsetInCU: 0x11D66, offset: 0x11D66, size: 0x8, addend: 0x0, symName: __ZNSt3__122__compressed_pair_elemINS_4lessIiEELi1ELb1EEC2B8ue170006IRKS2_vEEOT_, symObjAddr: 0x2758, symBinAddr: 0x100003998, symSize: 0x18 }
  - { offsetInCU: 0x11DA8, offset: 0x11DA8, size: 0x8, addend: 0x0, symName: __ZNSt3__114pointer_traitsIPNS_15__tree_end_nodeIPNS_16__tree_node_baseIPvEEEEE10pointer_toB8ue170006ERS6_, symObjAddr: 0x2770, symBinAddr: 0x1000039B0, symSize: 0x14 }
  - { offsetInCU: 0x11DCB, offset: 0x11DCB, size: 0x8, addend: 0x0, symName: __ZNSt3__117__compressed_pairINS_15__tree_end_nodeIPNS_16__tree_node_baseIPvEEEENS_9allocatorINS_11__tree_nodeIiS3_EEEEE5firstB8ue170006Ev, symObjAddr: 0x2784, symBinAddr: 0x1000039C4, symSize: 0x24 }
  - { offsetInCU: 0x11DF1, offset: 0x11DF1, size: 0x8, addend: 0x0, symName: __ZNSt3__122__compressed_pair_elemINS_15__tree_end_nodeIPNS_16__tree_node_baseIPvEEEELi0ELb0EE5__getB8ue170006Ev, symObjAddr: 0x27A8, symBinAddr: 0x1000039E8, symSize: 0x14 }
  - { offsetInCU: 0x11E17, offset: 0x11E17, size: 0x8, addend: 0x0, symName: __ZNKSt3__13setIiNS_4lessIiEENS_9allocatorIiEEE4cendB8ue170006Ev, symObjAddr: 0x27BC, symBinAddr: 0x1000039FC, symSize: 0x2C }
  - { offsetInCU: 0x11E3D, offset: 0x11E3D, size: 0x8, addend: 0x0, symName: __ZNSt3__16__treeIiNS_4lessIiEENS_9allocatorIiEEE15__insert_uniqueB8ue170006ENS_21__tree_const_iteratorIiPNS_11__tree_nodeIiPvEElEERKi, symObjAddr: 0x27E8, symBinAddr: 0x100003A28, symSize: 0x64 }
  - { offsetInCU: 0x11E81, offset: 0x11E81, size: 0x8, addend: 0x0, symName: __ZNKSt3__13setIiNS_4lessIiEENS_9allocatorIiEEE3endB8ue170006Ev, symObjAddr: 0x284C, symBinAddr: 0x100003A8C, symSize: 0x2C }
  - { offsetInCU: 0x11EA7, offset: 0x11EA7, size: 0x8, addend: 0x0, symName: __ZNKSt3__16__treeIiNS_4lessIiEENS_9allocatorIiEEE3endB8ue170006Ev, symObjAddr: 0x2878, symBinAddr: 0x100003AB8, symSize: 0x34 }
  - { offsetInCU: 0x11ECD, offset: 0x11ECD, size: 0x8, addend: 0x0, symName: __ZNKSt3__16__treeIiNS_4lessIiEENS_9allocatorIiEEE10__end_nodeB8ue170006Ev, symObjAddr: 0x28AC, symBinAddr: 0x100003AEC, symSize: 0x2C }
  - { offsetInCU: 0x11EF3, offset: 0x11EF3, size: 0x8, addend: 0x0, symName: __ZNSt3__121__tree_const_iteratorIiPNS_11__tree_nodeIiPvEElEC1B8ue170006EPNS_15__tree_end_nodeIPNS_16__tree_node_baseIS2_EEEE, symObjAddr: 0x28D8, symBinAddr: 0x100003B18, symSize: 0x34 }
  - { offsetInCU: 0x11F2C, offset: 0x11F2C, size: 0x8, addend: 0x0, symName: __ZNKSt3__117__compressed_pairINS_15__tree_end_nodeIPNS_16__tree_node_baseIPvEEEENS_9allocatorINS_11__tree_nodeIiS3_EEEEE5firstB8ue170006Ev, symObjAddr: 0x290C, symBinAddr: 0x100003B4C, symSize: 0x24 }
  - { offsetInCU: 0x11F52, offset: 0x11F52, size: 0x8, addend: 0x0, symName: __ZNKSt3__122__compressed_pair_elemINS_15__tree_end_nodeIPNS_16__tree_node_baseIPvEEEELi0ELb0EE5__getB8ue170006Ev, symObjAddr: 0x2930, symBinAddr: 0x100003B70, symSize: 0x14 }
  - { offsetInCU: 0x11F78, offset: 0x11F78, size: 0x8, addend: 0x0, symName: __ZNSt3__121__tree_const_iteratorIiPNS_11__tree_nodeIiPvEElEC2B8ue170006EPNS_15__tree_end_nodeIPNS_16__tree_node_baseIS2_EEEE, symObjAddr: 0x2944, symBinAddr: 0x100003B84, symSize: 0x20 }
  - { offsetInCU: 0x11FB1, offset: 0x11FB1, size: 0x8, addend: 0x0, symName: __ZNSt3__16__treeIiNS_4lessIiEENS_9allocatorIiEEE30__emplace_hint_unique_key_argsIiJRKiEEENS_4pairINS_15__tree_iteratorIiPNS_11__tree_nodeIiPvEElEEbEENS_21__tree_const_iteratorIiSE_lEERKT_DpOT0_, symObjAddr: 0x2964, symBinAddr: 0x100003BA4, symSize: 0x104 }
  - { offsetInCU: 0x1207D, offset: 0x1207D, size: 0x8, addend: 0x0, symName: __ZNSt3__122__tree_key_value_typesIiE9__get_keyB8ue170006ERKi, symObjAddr: 0x2A68, symBinAddr: 0x100003CA8, symSize: 0x14 }
  - { offsetInCU: 0x120A1, offset: 0x120A1, size: 0x8, addend: 0x0, symName: __ZNSt3__16__treeIiNS_4lessIiEENS_9allocatorIiEEE12__find_equalIiEERPNS_16__tree_node_baseIPvEENS_21__tree_const_iteratorIiPNS_11__tree_nodeIiS8_EElEERPNS_15__tree_end_nodeISA_EESB_RKT_, symObjAddr: 0x2A7C, symBinAddr: 0x100003CBC, symSize: 0x304 }
  - { offsetInCU: 0x1214A, offset: 0x1214A, size: 0x8, addend: 0x0, symName: __ZNSt3__16__treeIiNS_4lessIiEENS_9allocatorIiEEE16__construct_nodeIJRKiEEENS_10unique_ptrINS_11__tree_nodeIiPvEENS_22__tree_node_destructorINS3_ISC_EEEEEEDpOT_, symObjAddr: 0x2D80, symBinAddr: 0x100003FC0, symSize: 0x110 }
  - { offsetInCU: 0x121AB, offset: 0x121AB, size: 0x8, addend: 0x0, symName: __ZNSt3__16__treeIiNS_4lessIiEENS_9allocatorIiEEE16__insert_node_atEPNS_15__tree_end_nodeIPNS_16__tree_node_baseIPvEEEERSA_SA_, symObjAddr: 0x2E90, symBinAddr: 0x1000040D0, symSize: 0xCC }
  - { offsetInCU: 0x12200, offset: 0x12200, size: 0x8, addend: 0x0, symName: __ZNKSt3__110unique_ptrINS_11__tree_nodeIiPvEENS_22__tree_node_destructorINS_9allocatorIS3_EEEEE3getB8ue170006Ev, symObjAddr: 0x2F5C, symBinAddr: 0x10000419C, symSize: 0x28 }
  - { offsetInCU: 0x12226, offset: 0x12226, size: 0x8, addend: 0x0, symName: __ZNSt3__110unique_ptrINS_11__tree_nodeIiPvEENS_22__tree_node_destructorINS_9allocatorIS3_EEEEE7releaseB8ue170006Ev, symObjAddr: 0x2F84, symBinAddr: 0x1000041C4, symSize: 0x44 }
  - { offsetInCU: 0x1225B, offset: 0x1225B, size: 0x8, addend: 0x0, symName: __ZNSt3__110unique_ptrINS_11__tree_nodeIiPvEENS_22__tree_node_destructorINS_9allocatorIS3_EEEEED1B8ue170006Ev, symObjAddr: 0x2FC8, symBinAddr: 0x100004208, symSize: 0x2C }
  - { offsetInCU: 0x12285, offset: 0x12285, size: 0x8, addend: 0x0, symName: __ZNSt3__115__tree_iteratorIiPNS_11__tree_nodeIiPvEElEC1B8ue170006ES4_, symObjAddr: 0x2FF4, symBinAddr: 0x100004234, symSize: 0x34 }
  - { offsetInCU: 0x122C8, offset: 0x122C8, size: 0x8, addend: 0x0, symName: __ZNSt3__14pairINS_15__tree_iteratorIiPNS_11__tree_nodeIiPvEElEEbEC1B8ue170006IS6_RbLS3_0EEEOT_OT0_, symObjAddr: 0x3028, symBinAddr: 0x100004268, symSize: 0x3C }
  - { offsetInCU: 0x12326, offset: 0x12326, size: 0x8, addend: 0x0, symName: __ZNSt3__16__treeIiNS_4lessIiEENS_9allocatorIiEEE3endB8ue170006Ev, symObjAddr: 0x3094, symBinAddr: 0x1000042D4, symSize: 0x34 }
  - { offsetInCU: 0x1234C, offset: 0x1234C, size: 0x8, addend: 0x0, symName: __ZNSt3__121__tree_const_iteratorIiPNS_11__tree_nodeIiPvEElEC1B8ue170006ENS_15__tree_iteratorIiS4_lEE, symObjAddr: 0x30C8, symBinAddr: 0x100004308, symSize: 0x34 }
  - { offsetInCU: 0x12385, offset: 0x12385, size: 0x8, addend: 0x0, symName: __ZNSt3__16__treeIiNS_4lessIiEENS_9allocatorIiEEE10value_compB8ue170006Ev, symObjAddr: 0x30FC, symBinAddr: 0x10000433C, symSize: 0x28 }
  - { offsetInCU: 0x123AB, offset: 0x123AB, size: 0x8, addend: 0x0, symName: __ZNKSt3__14lessIiEclB8ue170006ERKiS3_, symObjAddr: 0x3124, symBinAddr: 0x100004364, symSize: 0x34 }
  - { offsetInCU: 0x123EF, offset: 0x123EF, size: 0x8, addend: 0x0, symName: __ZNSt3__16__treeIiNS_4lessIiEENS_9allocatorIiEEE5beginB8ue170006Ev, symObjAddr: 0x3158, symBinAddr: 0x100004398, symSize: 0x34 }
  - { offsetInCU: 0x12415, offset: 0x12415, size: 0x8, addend: 0x0, symName: __ZNSt3__121__tree_const_iteratorIiPNS_11__tree_nodeIiPvEElEmmB8ue170006Ev, symObjAddr: 0x318C, symBinAddr: 0x1000043CC, symSize: 0x38 }
  - { offsetInCU: 0x1243B, offset: 0x1243B, size: 0x8, addend: 0x0, symName: __ZNSt3__16__treeIiNS_4lessIiEENS_9allocatorIiEEE12__find_equalIiEERPNS_16__tree_node_baseIPvEERPNS_15__tree_end_nodeISA_EERKT_, symObjAddr: 0x31C4, symBinAddr: 0x100004404, symSize: 0x184 }
  - { offsetInCU: 0x124A8, offset: 0x124A8, size: 0x8, addend: 0x0, symName: __ZNKSt3__121__tree_const_iteratorIiPNS_11__tree_nodeIiPvEElE8__get_npB8ue170006Ev, symObjAddr: 0x3384, symBinAddr: 0x1000045C4, symSize: 0x18 }
  - { offsetInCU: 0x124CE, offset: 0x124CE, size: 0x8, addend: 0x0, symName: __ZNSt3__115__tree_iteratorIiPNS_11__tree_nodeIiPvEElEC1B8ue170006EPNS_15__tree_end_nodeIPNS_16__tree_node_baseIS2_EEEE, symObjAddr: 0x339C, symBinAddr: 0x1000045DC, symSize: 0x34 }
  - { offsetInCU: 0x12507, offset: 0x12507, size: 0x8, addend: 0x0, symName: __ZNSt3__115__tree_iteratorIiPNS_11__tree_nodeIiPvEElEC2B8ue170006EPNS_15__tree_end_nodeIPNS_16__tree_node_baseIS2_EEEE, symObjAddr: 0x33D0, symBinAddr: 0x100004610, symSize: 0x20 }
  - { offsetInCU: 0x12540, offset: 0x12540, size: 0x8, addend: 0x0, symName: __ZNSt3__121__tree_const_iteratorIiPNS_11__tree_nodeIiPvEElEC2B8ue170006ENS_15__tree_iteratorIiS4_lEE, symObjAddr: 0x33F0, symBinAddr: 0x100004630, symSize: 0x20 }
  - { offsetInCU: 0x12579, offset: 0x12579, size: 0x8, addend: 0x0, symName: __ZNSt3__117__compressed_pairImNS_4lessIiEEE6secondB8ue170006Ev, symObjAddr: 0x3410, symBinAddr: 0x100004650, symSize: 0x24 }
  - { offsetInCU: 0x1259F, offset: 0x1259F, size: 0x8, addend: 0x0, symName: __ZNSt3__122__compressed_pair_elemINS_4lessIiEELi1ELb1EE5__getB8ue170006Ev, symObjAddr: 0x3434, symBinAddr: 0x100004674, symSize: 0x14 }
  - { offsetInCU: 0x125C5, offset: 0x125C5, size: 0x8, addend: 0x0, symName: __ZNKSt3__116__tree_node_baseIPvE15__parent_unsafeB8ue170006Ev, symObjAddr: 0x3558, symBinAddr: 0x100004798, symSize: 0x18 }
  - { offsetInCU: 0x125EB, offset: 0x125EB, size: 0x8, addend: 0x0, symName: __ZNKSt3__16__treeIiNS_4lessIiEENS_9allocatorIiEEE6__rootB8ue170006Ev, symObjAddr: 0x3570, symBinAddr: 0x1000047B0, symSize: 0x28 }
  - { offsetInCU: 0x12611, offset: 0x12611, size: 0x8, addend: 0x0, symName: __ZNKSt3__16__treeIiNS_4lessIiEENS_9allocatorIiEEE10__root_ptrB8ue170006Ev, symObjAddr: 0x3598, symBinAddr: 0x1000047D8, symSize: 0x24 }
  - { offsetInCU: 0x12637, offset: 0x12637, size: 0x8, addend: 0x0, symName: __ZNSt3__121__tree_const_iteratorIiPNS_11__tree_nodeIiPvEElEppB8ue170006Ev, symObjAddr: 0x36AC, symBinAddr: 0x1000048EC, symSize: 0x38 }
  - { offsetInCU: 0x1265D, offset: 0x1265D, size: 0x8, addend: 0x0, symName: __ZNSt3__16__treeIiNS_4lessIiEENS_9allocatorIiEEE12__node_allocB8ue170006Ev, symObjAddr: 0x37A4, symBinAddr: 0x1000049E4, symSize: 0x28 }
  - { offsetInCU: 0x12683, offset: 0x12683, size: 0x8, addend: 0x0, symName: __ZNSt3__116allocator_traitsINS_9allocatorINS_11__tree_nodeIiPvEEEEE8allocateB8ue170006ERS5_m, symObjAddr: 0x37CC, symBinAddr: 0x100004A0C, symSize: 0x2C }
  - { offsetInCU: 0x126B6, offset: 0x126B6, size: 0x8, addend: 0x0, symName: __ZNSt3__122__tree_node_destructorINS_9allocatorINS_11__tree_nodeIiPvEEEEEC1B8ue170006ERS5_b, symObjAddr: 0x37F8, symBinAddr: 0x100004A38, symSize: 0x48 }
  - { offsetInCU: 0x12703, offset: 0x12703, size: 0x8, addend: 0x0, symName: __ZNSt3__110unique_ptrINS_11__tree_nodeIiPvEENS_22__tree_node_destructorINS_9allocatorIS3_EEEEEC1B8ue170006ILb1EvEEPS3_NS_16__dependent_typeINS_27__unique_ptr_deleter_sfinaeIS7_EEXT_EE20__good_rval_ref_typeE, symObjAddr: 0x3840, symBinAddr: 0x100004A80, symSize: 0x3C }
  - { offsetInCU: 0x12754, offset: 0x12754, size: 0x8, addend: 0x0, symName: __ZNSt3__116allocator_traitsINS_9allocatorINS_11__tree_nodeIiPvEEEEE9constructB8ue170006IiJRKiEvEEvRS5_PT_DpOT0_, symObjAddr: 0x387C, symBinAddr: 0x100004ABC, symSize: 0x34 }
  - { offsetInCU: 0x127AB, offset: 0x127AB, size: 0x8, addend: 0x0, symName: __ZNSt3__122__tree_key_value_typesIiE9__get_ptrB8ue170006ERi, symObjAddr: 0x38B0, symBinAddr: 0x100004AF0, symSize: 0x14 }
  - { offsetInCU: 0x127CF, offset: 0x127CF, size: 0x8, addend: 0x0, symName: __ZNKSt3__110unique_ptrINS_11__tree_nodeIiPvEENS_22__tree_node_destructorINS_9allocatorIS3_EEEEEptB8ue170006Ev, symObjAddr: 0x38C4, symBinAddr: 0x100004B04, symSize: 0x28 }
  - { offsetInCU: 0x127F5, offset: 0x127F5, size: 0x8, addend: 0x0, symName: __ZNSt3__110unique_ptrINS_11__tree_nodeIiPvEENS_22__tree_node_destructorINS_9allocatorIS3_EEEEE11get_deleterB8ue170006Ev, symObjAddr: 0x38EC, symBinAddr: 0x100004B2C, symSize: 0x24 }
  - { offsetInCU: 0x1281B, offset: 0x1281B, size: 0x8, addend: 0x0, symName: __ZNSt3__117__compressed_pairINS_15__tree_end_nodeIPNS_16__tree_node_baseIPvEEEENS_9allocatorINS_11__tree_nodeIiS3_EEEEE6secondB8ue170006Ev, symObjAddr: 0x3910, symBinAddr: 0x100004B50, symSize: 0x24 }
  - { offsetInCU: 0x12841, offset: 0x12841, size: 0x8, addend: 0x0, symName: __ZNSt3__122__compressed_pair_elemINS_9allocatorINS_11__tree_nodeIiPvEEEELi1ELb1EE5__getB8ue170006Ev, symObjAddr: 0x3934, symBinAddr: 0x100004B74, symSize: 0x14 }
  - { offsetInCU: 0x12867, offset: 0x12867, size: 0x8, addend: 0x0, symName: __ZNSt3__19allocatorINS_11__tree_nodeIiPvEEE8allocateB8ue170006Em, symObjAddr: 0x3948, symBinAddr: 0x100004B88, symSize: 0x58 }
  - { offsetInCU: 0x128A5, offset: 0x128A5, size: 0x8, addend: 0x0, symName: __ZNSt3__116allocator_traitsINS_9allocatorINS_11__tree_nodeIiPvEEEEE8max_sizeB8ue170006IS5_vEEmRKS5_, symObjAddr: 0x39A0, symBinAddr: 0x100004BE0, symSize: 0x24 }
  - { offsetInCU: 0x128D3, offset: 0x128D3, size: 0x8, addend: 0x0, symName: __ZNKSt3__19allocatorINS_11__tree_nodeIiPvEEE8max_sizeB8ue170006Ev, symObjAddr: 0x3A58, symBinAddr: 0x100004C98, symSize: 0x14 }
  - { offsetInCU: 0x128F9, offset: 0x128F9, size: 0x8, addend: 0x0, symName: __ZNSt3__122__tree_node_destructorINS_9allocatorINS_11__tree_nodeIiPvEEEEEC2B8ue170006ERS5_b, symObjAddr: 0x3ADC, symBinAddr: 0x100004D1C, symSize: 0x38 }
  - { offsetInCU: 0x12941, offset: 0x12941, size: 0x8, addend: 0x0, symName: __ZNSt3__110unique_ptrINS_11__tree_nodeIiPvEENS_22__tree_node_destructorINS_9allocatorIS3_EEEEEC2B8ue170006ILb1EvEEPS3_NS_16__dependent_typeINS_27__unique_ptr_deleter_sfinaeIS7_EEXT_EE20__good_rval_ref_typeE, symObjAddr: 0x3B14, symBinAddr: 0x100004D54, symSize: 0x48 }
  - { offsetInCU: 0x12992, offset: 0x12992, size: 0x8, addend: 0x0, symName: __ZNSt3__117__compressed_pairIPNS_11__tree_nodeIiPvEENS_22__tree_node_destructorINS_9allocatorIS3_EEEEEC1B8ue170006IRS4_S8_EEOT_OT0_, symObjAddr: 0x3B5C, symBinAddr: 0x100004D9C, symSize: 0x3C }
  - { offsetInCU: 0x129EA, offset: 0x129EA, size: 0x8, addend: 0x0, symName: __ZNSt3__117__compressed_pairIPNS_11__tree_nodeIiPvEENS_22__tree_node_destructorINS_9allocatorIS3_EEEEEC2B8ue170006IRS4_S8_EEOT_OT0_, symObjAddr: 0x3B98, symBinAddr: 0x100004DD8, symSize: 0x48 }
  - { offsetInCU: 0x12A42, offset: 0x12A42, size: 0x8, addend: 0x0, symName: __ZNSt3__122__compressed_pair_elemIPNS_11__tree_nodeIiPvEELi0ELb0EEC2B8ue170006IRS4_vEEOT_, symObjAddr: 0x3BE0, symBinAddr: 0x100004E20, symSize: 0x24 }
  - { offsetInCU: 0x12A84, offset: 0x12A84, size: 0x8, addend: 0x0, symName: __ZNSt3__122__compressed_pair_elemINS_22__tree_node_destructorINS_9allocatorINS_11__tree_nodeIiPvEEEEEELi1ELb0EEC2B8ue170006IS7_vEEOT_, symObjAddr: 0x3C04, symBinAddr: 0x100004E44, symSize: 0x24 }
  - { offsetInCU: 0x12AC6, offset: 0x12AC6, size: 0x8, addend: 0x0, symName: __ZNSt3__19allocatorINS_11__tree_nodeIiPvEEE9constructB8ue170006IiJRKiEEEvPT_DpOT0_, symObjAddr: 0x3C28, symBinAddr: 0x100004E68, symSize: 0x28 }
  - { offsetInCU: 0x12B1C, offset: 0x12B1C, size: 0x8, addend: 0x0, symName: __ZNKSt3__117__compressed_pairIPNS_11__tree_nodeIiPvEENS_22__tree_node_destructorINS_9allocatorIS3_EEEEE5firstB8ue170006Ev, symObjAddr: 0x3C50, symBinAddr: 0x100004E90, symSize: 0x24 }
  - { offsetInCU: 0x12B42, offset: 0x12B42, size: 0x8, addend: 0x0, symName: __ZNKSt3__122__compressed_pair_elemIPNS_11__tree_nodeIiPvEELi0ELb0EE5__getB8ue170006Ev, symObjAddr: 0x3C74, symBinAddr: 0x100004EB4, symSize: 0x14 }
  - { offsetInCU: 0x12B68, offset: 0x12B68, size: 0x8, addend: 0x0, symName: __ZNSt3__117__compressed_pairIPNS_11__tree_nodeIiPvEENS_22__tree_node_destructorINS_9allocatorIS3_EEEEE6secondB8ue170006Ev, symObjAddr: 0x3C88, symBinAddr: 0x100004EC8, symSize: 0x28 }
  - { offsetInCU: 0x12B8E, offset: 0x12B8E, size: 0x8, addend: 0x0, symName: __ZNSt3__122__compressed_pair_elemINS_22__tree_node_destructorINS_9allocatorINS_11__tree_nodeIiPvEEEEEELi1ELb0EE5__getB8ue170006Ev, symObjAddr: 0x3CB0, symBinAddr: 0x100004EF0, symSize: 0x14 }
  - { offsetInCU: 0x12BB4, offset: 0x12BB4, size: 0x8, addend: 0x0, symName: __ZNSt3__16__treeIiNS_4lessIiEENS_9allocatorIiEEE4sizeB8ue170006Ev, symObjAddr: 0x3F40, symBinAddr: 0x100005180, symSize: 0x28 }
  - { offsetInCU: 0x12BDA, offset: 0x12BDA, size: 0x8, addend: 0x0, symName: __ZNSt3__116__tree_node_baseIPvE12__set_parentB8ue170006EPS2_, symObjAddr: 0x410C, symBinAddr: 0x10000534C, symSize: 0x20 }
  - { offsetInCU: 0x12C0F, offset: 0x12C0F, size: 0x8, addend: 0x0, symName: __ZNSt3__117__compressed_pairImNS_4lessIiEEE5firstB8ue170006Ev, symObjAddr: 0x412C, symBinAddr: 0x10000536C, symSize: 0x24 }
  - { offsetInCU: 0x12C35, offset: 0x12C35, size: 0x8, addend: 0x0, symName: __ZNSt3__122__compressed_pair_elemImLi0ELb0EE5__getB8ue170006Ev, symObjAddr: 0x4150, symBinAddr: 0x100005390, symSize: 0x14 }
  - { offsetInCU: 0x12C5B, offset: 0x12C5B, size: 0x8, addend: 0x0, symName: __ZNSt3__117__compressed_pairIPNS_11__tree_nodeIiPvEENS_22__tree_node_destructorINS_9allocatorIS3_EEEEE5firstB8ue170006Ev, symObjAddr: 0x4164, symBinAddr: 0x1000053A4, symSize: 0x24 }
  - { offsetInCU: 0x12C81, offset: 0x12C81, size: 0x8, addend: 0x0, symName: __ZNSt3__122__compressed_pair_elemIPNS_11__tree_nodeIiPvEELi0ELb0EE5__getB8ue170006Ev, symObjAddr: 0x4188, symBinAddr: 0x1000053C8, symSize: 0x14 }
  - { offsetInCU: 0x12CA7, offset: 0x12CA7, size: 0x8, addend: 0x0, symName: __ZNSt3__110unique_ptrINS_11__tree_nodeIiPvEENS_22__tree_node_destructorINS_9allocatorIS3_EEEEED2B8ue170006Ev, symObjAddr: 0x419C, symBinAddr: 0x1000053DC, symSize: 0x30 }
  - { offsetInCU: 0x12CD1, offset: 0x12CD1, size: 0x8, addend: 0x0, symName: __ZNSt3__110unique_ptrINS_11__tree_nodeIiPvEENS_22__tree_node_destructorINS_9allocatorIS3_EEEEE5resetB8ue170006EPS3_, symObjAddr: 0x41CC, symBinAddr: 0x10000540C, symSize: 0x78 }
  - { offsetInCU: 0x12D15, offset: 0x12D15, size: 0x8, addend: 0x0, symName: __ZNSt3__122__tree_node_destructorINS_9allocatorINS_11__tree_nodeIiPvEEEEEclB8ue170006EPS4_, symObjAddr: 0x4244, symBinAddr: 0x100005484, symSize: 0x90 }
  - { offsetInCU: 0x12D4A, offset: 0x12D4A, size: 0x8, addend: 0x0, symName: __ZNSt3__116allocator_traitsINS_9allocatorINS_11__tree_nodeIiPvEEEEE7destroyB8ue170006IivvEEvRS5_PT_, symObjAddr: 0x42D4, symBinAddr: 0x100005514, symSize: 0x14 }
  - { offsetInCU: 0x12D85, offset: 0x12D85, size: 0x8, addend: 0x0, symName: __ZNSt3__116allocator_traitsINS_9allocatorINS_11__tree_nodeIiPvEEEEE10deallocateB8ue170006ERS5_PS4_m, symObjAddr: 0x42E8, symBinAddr: 0x100005528, symSize: 0x34 }
  - { offsetInCU: 0x12DC7, offset: 0x12DC7, size: 0x8, addend: 0x0, symName: __ZNSt3__19allocatorINS_11__tree_nodeIiPvEEE10deallocateB8ue170006EPS3_m, symObjAddr: 0x431C, symBinAddr: 0x10000555C, symSize: 0x40 }
  - { offsetInCU: 0x12E09, offset: 0x12E09, size: 0x8, addend: 0x0, symName: __ZNSt3__115__tree_iteratorIiPNS_11__tree_nodeIiPvEElEC2B8ue170006ES4_, symObjAddr: 0x4464, symBinAddr: 0x1000056A4, symSize: 0x20 }
  - { offsetInCU: 0x12E42, offset: 0x12E42, size: 0x8, addend: 0x0, symName: __ZNSt3__14pairINS_15__tree_iteratorIiPNS_11__tree_nodeIiPvEElEEbEC2B8ue170006IS6_RbLS3_0EEEOT_OT0_, symObjAddr: 0x4484, symBinAddr: 0x1000056C4, symSize: 0x38 }
  - { offsetInCU: 0x12EA0, offset: 0x12EA0, size: 0x8, addend: 0x0, symName: __ZNSt3__16__treeIiNS_4lessIiEENS_9allocatorIiEEED2Ev, symObjAddr: 0x44BC, symBinAddr: 0x1000056FC, symSize: 0x38 }
  - { offsetInCU: 0x12ECC, offset: 0x12ECC, size: 0x8, addend: 0x0, symName: __ZNSt3__16__treeIiNS_4lessIiEENS_9allocatorIiEEE7destroyEPNS_11__tree_nodeIiPvEE, symObjAddr: 0x44F4, symBinAddr: 0x100005734, symSize: 0x9C }
  - { offsetInCU: 0x12F20, offset: 0x12F20, size: 0x8, addend: 0x0, symName: __ZNSt3__13setIiNS_4lessIiEENS_9allocatorIiEEED2B8ue170006Ev, symObjAddr: 0x4590, symBinAddr: 0x1000057D0, symSize: 0x2C }
  - { offsetInCU: 0x12F4A, offset: 0x12F4A, size: 0x8, addend: 0x0, symName: __ZNKSt3__13setIiNS_4lessIiEENS_9allocatorIiEEE5beginB8ue170006Ev, symObjAddr: 0x45BC, symBinAddr: 0x1000057FC, symSize: 0x2C }
  - { offsetInCU: 0x12F70, offset: 0x12F70, size: 0x8, addend: 0x0, symName: __ZNKSt3__16__treeIiNS_4lessIiEENS_9allocatorIiEEE5beginB8ue170006Ev, symObjAddr: 0x45E8, symBinAddr: 0x100005828, symSize: 0x34 }
  - { offsetInCU: 0x12F96, offset: 0x12F96, size: 0x8, addend: 0x0, symName: __ZNKSt3__16__treeIiNS_4lessIiEENS_9allocatorIiEEE12__begin_nodeB8ue170006Ev, symObjAddr: 0x461C, symBinAddr: 0x10000585C, symSize: 0x14 }
  - { offsetInCU: 0x12FBC, offset: 0x12FBC, size: 0x8, addend: 0x0, symName: __ZNSt3__16__treeIiNS_4lessIiEENS_9allocatorIiEEE15__assign_uniqueIPKiEEvT_S9_, symObjAddr: 0x4630, symBinAddr: 0x100005870, symSize: 0x170 }
  - { offsetInCU: 0x1303E, offset: 0x1303E, size: 0x8, addend: 0x0, symName: __ZNSt3__16__treeIiNS_4lessIiEENS_9allocatorIiEEE18_DetachedTreeCacheC1B8ue170006EPS5_, symObjAddr: 0x47A0, symBinAddr: 0x1000059E0, symSize: 0x34 }
  - { offsetInCU: 0x13077, offset: 0x13077, size: 0x8, addend: 0x0, symName: __ZNKSt3__16__treeIiNS_4lessIiEENS_9allocatorIiEEE18_DetachedTreeCache5__getB8ue170006Ev, symObjAddr: 0x47D4, symBinAddr: 0x100005A14, symSize: 0x18 }
  - { offsetInCU: 0x1309D, offset: 0x1309D, size: 0x8, addend: 0x0, symName: __ZNSt3__16__treeIiNS_4lessIiEENS_9allocatorIiEEE20__node_assign_uniqueERKiPNS_11__tree_nodeIiPvEE, symObjAddr: 0x47EC, symBinAddr: 0x100005A2C, symSize: 0xD0 }
  - { offsetInCU: 0x1311F, offset: 0x1311F, size: 0x8, addend: 0x0, symName: __ZNSt3__16__treeIiNS_4lessIiEENS_9allocatorIiEEE18_DetachedTreeCache9__advanceB8ue170006Ev, symObjAddr: 0x48BC, symBinAddr: 0x100005AFC, symSize: 0x58 }
  - { offsetInCU: 0x13145, offset: 0x13145, size: 0x8, addend: 0x0, symName: __ZNSt3__16__treeIiNS_4lessIiEENS_9allocatorIiEEE18_DetachedTreeCacheD1B8ue170006Ev, symObjAddr: 0x4914, symBinAddr: 0x100005B54, symSize: 0x2C }
  - { offsetInCU: 0x1316F, offset: 0x1316F, size: 0x8, addend: 0x0, symName: __ZNSt3__16__treeIiNS_4lessIiEENS_9allocatorIiEEE15__insert_uniqueB8ue170006ERKi, symObjAddr: 0x4940, symBinAddr: 0x100005B80, symSize: 0x50 }
  - { offsetInCU: 0x131A4, offset: 0x131A4, size: 0x8, addend: 0x0, symName: __ZNSt3__16__treeIiNS_4lessIiEENS_9allocatorIiEEE18_DetachedTreeCacheC2B8ue170006EPS5_, symObjAddr: 0x4990, symBinAddr: 0x100005BD0, symSize: 0x4C }
  - { offsetInCU: 0x131DD, offset: 0x131DD, size: 0x8, addend: 0x0, symName: __ZNSt3__16__treeIiNS_4lessIiEENS_9allocatorIiEEE18_DetachedTreeCache18__detach_from_treeEPS5_, symObjAddr: 0x49DC, symBinAddr: 0x100005C1C, symSize: 0xA0 }
  - { offsetInCU: 0x13212, offset: 0x13212, size: 0x8, addend: 0x0, symName: __ZNSt3__16__treeIiNS_4lessIiEENS_9allocatorIiEEE18_DetachedTreeCache13__detach_nextEPNS_11__tree_nodeIiPvEE, symObjAddr: 0x4A7C, symBinAddr: 0x100005CBC, symSize: 0xF0 }
  - { offsetInCU: 0x13238, offset: 0x13238, size: 0x8, addend: 0x0, symName: __ZNSt3__16__treeIiNS_4lessIiEENS_9allocatorIiEEE18_DetachedTreeCacheD2B8ue170006Ev, symObjAddr: 0x4BDC, symBinAddr: 0x100005E1C, symSize: 0x9C }
  - { offsetInCU: 0x13262, offset: 0x13262, size: 0x8, addend: 0x0, symName: __ZNSt3__16__treeIiNS_4lessIiEENS_9allocatorIiEEE25__emplace_unique_key_argsIiJRKiEEENS_4pairINS_15__tree_iteratorIiPNS_11__tree_nodeIiPvEElEEbEERKT_DpOT0_, symObjAddr: 0x4C78, symBinAddr: 0x100005EB8, symSize: 0xF0 }
  - { offsetInCU: 0x1330E, offset: 0x1330E, size: 0x8, addend: 0x0, symName: __ZNSt3__16__treeIiNS_4lessIiEENS_9allocatorIiEEE15__insert_uniqueB8ue170006EOi, symObjAddr: 0x4D68, symBinAddr: 0x100005FA8, symSize: 0x50 }
  - { offsetInCU: 0x13343, offset: 0x13343, size: 0x8, addend: 0x0, symName: __ZNSt3__14pairINS_21__tree_const_iteratorIiPNS_11__tree_nodeIiPvEElEEbEC1B8ue170006INS_15__tree_iteratorIiS5_lEEbLS3_0EEEONS0_IT_T0_EE, symObjAddr: 0x4DB8, symBinAddr: 0x100005FF8, symSize: 0x34 }
  - { offsetInCU: 0x13394, offset: 0x13394, size: 0x8, addend: 0x0, symName: __ZNSt3__16__treeIiNS_4lessIiEENS_9allocatorIiEEE25__emplace_unique_key_argsIiJiEEENS_4pairINS_15__tree_iteratorIiPNS_11__tree_nodeIiPvEElEEbEERKT_DpOT0_, symObjAddr: 0x4DEC, symBinAddr: 0x10000602C, symSize: 0xF0 }
  - { offsetInCU: 0x13440, offset: 0x13440, size: 0x8, addend: 0x0, symName: __ZNSt3__16__treeIiNS_4lessIiEENS_9allocatorIiEEE16__construct_nodeIJiEEENS_10unique_ptrINS_11__tree_nodeIiPvEENS_22__tree_node_destructorINS3_ISA_EEEEEEDpOT_, symObjAddr: 0x4EDC, symBinAddr: 0x10000611C, symSize: 0x108 }
  - { offsetInCU: 0x134A1, offset: 0x134A1, size: 0x8, addend: 0x0, symName: __ZNSt3__116allocator_traitsINS_9allocatorINS_11__tree_nodeIiPvEEEEE9constructB8ue170006IiJiEvEEvRS5_PT_DpOT0_, symObjAddr: 0x4FE4, symBinAddr: 0x100006224, symSize: 0x34 }
  - { offsetInCU: 0x134F8, offset: 0x134F8, size: 0x8, addend: 0x0, symName: __ZNSt3__19allocatorINS_11__tree_nodeIiPvEEE9constructB8ue170006IiJiEEEvPT_DpOT0_, symObjAddr: 0x5018, symBinAddr: 0x100006258, symSize: 0x28 }
  - { offsetInCU: 0x1354E, offset: 0x1354E, size: 0x8, addend: 0x0, symName: __ZNSt3__14pairINS_21__tree_const_iteratorIiPNS_11__tree_nodeIiPvEElEEbEC2B8ue170006INS_15__tree_iteratorIiS5_lEEbLS3_0EEEONS0_IT_T0_EE, symObjAddr: 0x5040, symBinAddr: 0x100006280, symSize: 0x50 }
  - { offsetInCU: 0x1359F, offset: 0x1359F, size: 0x8, addend: 0x0, symName: __ZNKSt3__16__treeIiNS_4lessIiEENS_9allocatorIiEEE14__count_uniqueIiEEmRKT_, symObjAddr: 0x5090, symBinAddr: 0x1000062D0, symSize: 0xC8 }
  - { offsetInCU: 0x135EE, offset: 0x135EE, size: 0x8, addend: 0x0, symName: __ZNKSt3__16__treeIiNS_4lessIiEENS_9allocatorIiEEE10value_compB8ue170006Ev, symObjAddr: 0x5158, symBinAddr: 0x100006398, symSize: 0x28 }
  - { offsetInCU: 0x13614, offset: 0x13614, size: 0x8, addend: 0x0, symName: __ZNKSt3__117__compressed_pairImNS_4lessIiEEE6secondB8ue170006Ev, symObjAddr: 0x5180, symBinAddr: 0x1000063C0, symSize: 0x24 }
  - { offsetInCU: 0x1363A, offset: 0x1363A, size: 0x8, addend: 0x0, symName: __ZNKSt3__122__compressed_pair_elemINS_4lessIiEELi1ELb1EE5__getB8ue170006Ev, symObjAddr: 0x51A4, symBinAddr: 0x1000063E4, symSize: 0x14 }
  - { offsetInCU: 0x13660, offset: 0x13660, size: 0x8, addend: 0x0, symName: __ZNSt3__16__treeIiNS_4lessIiEENS_9allocatorIiEEE4findIiEENS_15__tree_iteratorIiPNS_11__tree_nodeIiPvEElEERKT_, symObjAddr: 0x51B8, symBinAddr: 0x1000063F8, symSize: 0xF8 }
  - { offsetInCU: 0x136AF, offset: 0x136AF, size: 0x8, addend: 0x0, symName: __ZNSt3__16__treeIiNS_4lessIiEENS_9allocatorIiEEE13__lower_boundIiEENS_15__tree_iteratorIiPNS_11__tree_nodeIiPvEElEERKT_SB_PNS_15__tree_end_nodeIPNS_16__tree_node_baseIS9_EEEE, symObjAddr: 0x52B0, symBinAddr: 0x1000064F0, symSize: 0xA4 }
  - { offsetInCU: 0x1370D, offset: 0x1370D, size: 0x8, addend: 0x0, symName: __ZNKSt3__115__tree_iteratorIiPNS_11__tree_nodeIiPvEElEdeB8ue170006Ev, symObjAddr: 0x5388, symBinAddr: 0x1000065C8, symSize: 0x28 }
  - { offsetInCU: 0x13733, offset: 0x13733, size: 0x8, addend: 0x0, symName: __ZNKSt3__115__tree_iteratorIiPNS_11__tree_nodeIiPvEElE8__get_npB8ue170006Ev, symObjAddr: 0x53E0, symBinAddr: 0x100006620, symSize: 0x18 }
  - { offsetInCU: 0x13759, offset: 0x13759, size: 0x8, addend: 0x0, symName: __ZNSt3__16__treeIiNS_4lessIiEENS_9allocatorIiEEE5clearEv, symObjAddr: 0x53F8, symBinAddr: 0x100006638, symSize: 0x74 }
  - { offsetInCU: 0x13781, offset: 0x13781, size: 0x8, addend: 0x0, symName: __ZNSt3__13setI6PersonNS_4lessIS1_EENS_9allocatorIS1_EEEC2B8ue170006ESt16initializer_listIS1_ERKS3_, symObjAddr: 0x546C, symBinAddr: 0x1000066AC, symSize: 0x94 }
  - { offsetInCU: 0x137C9, offset: 0x137C9, size: 0x8, addend: 0x0, symName: __ZNSt3__16__treeI6PersonNS_4lessIS1_EENS_9allocatorIS1_EEEC1ERKS3_, symObjAddr: 0x5500, symBinAddr: 0x100006740, symSize: 0x34 }
  - { offsetInCU: 0x13804, offset: 0x13804, size: 0x8, addend: 0x0, symName: __ZNSt3__13setI6PersonNS_4lessIS1_EENS_9allocatorIS1_EEE6insertB8ue170006IPKS1_EEvT_SA_, symObjAddr: 0x5534, symBinAddr: 0x100006774, symSize: 0x80 }
  - { offsetInCU: 0x1386E, offset: 0x1386E, size: 0x8, addend: 0x0, symName: __ZNKSt16initializer_listI6PersonE5beginB8ue170006Ev, symObjAddr: 0x55B4, symBinAddr: 0x1000067F4, symSize: 0x18 }
  - { offsetInCU: 0x13894, offset: 0x13894, size: 0x8, addend: 0x0, symName: __ZNKSt16initializer_listI6PersonE3endB8ue170006Ev, symObjAddr: 0x55CC, symBinAddr: 0x10000680C, symSize: 0x20 }
  - { offsetInCU: 0x138BA, offset: 0x138BA, size: 0x8, addend: 0x0, symName: __ZNSt3__16__treeI6PersonNS_4lessIS1_EENS_9allocatorIS1_EEED1Ev, symObjAddr: 0x55EC, symBinAddr: 0x10000682C, symSize: 0x2C }
  - { offsetInCU: 0x138E6, offset: 0x138E6, size: 0x8, addend: 0x0, symName: __ZNSt3__16__treeI6PersonNS_4lessIS1_EENS_9allocatorIS1_EEEC2ERKS3_, symObjAddr: 0x5618, symBinAddr: 0x100006858, symSize: 0x7C }
  - { offsetInCU: 0x13921, offset: 0x13921, size: 0x8, addend: 0x0, symName: __ZNSt3__117__compressed_pairINS_15__tree_end_nodeIPNS_16__tree_node_baseIPvEEEENS_9allocatorINS_11__tree_nodeI6PersonS3_EEEEEC1B8ue170006ILb1EvEEv, symObjAddr: 0x5694, symBinAddr: 0x1000068D4, symSize: 0x2C }
  - { offsetInCU: 0x13956, offset: 0x13956, size: 0x8, addend: 0x0, symName: __ZNSt3__117__compressed_pairImNS_4lessI6PersonEEEC1B8ue170006IiRKS3_EEOT_OT0_, symObjAddr: 0x56C0, symBinAddr: 0x100006900, symSize: 0x3C }
  - { offsetInCU: 0x139AE, offset: 0x139AE, size: 0x8, addend: 0x0, symName: __ZNSt3__16__treeI6PersonNS_4lessIS1_EENS_9allocatorIS1_EEE10__end_nodeB8ue170006Ev, symObjAddr: 0x56FC, symBinAddr: 0x10000693C, symSize: 0x2C }
  - { offsetInCU: 0x139D4, offset: 0x139D4, size: 0x8, addend: 0x0, symName: __ZNSt3__16__treeI6PersonNS_4lessIS1_EENS_9allocatorIS1_EEE12__begin_nodeB8ue170006Ev, symObjAddr: 0x5728, symBinAddr: 0x100006968, symSize: 0x14 }
  - { offsetInCU: 0x139FA, offset: 0x139FA, size: 0x8, addend: 0x0, symName: __ZNSt3__117__compressed_pairINS_15__tree_end_nodeIPNS_16__tree_node_baseIPvEEEENS_9allocatorINS_11__tree_nodeI6PersonS3_EEEEEC2B8ue170006ILb1EvEEv, symObjAddr: 0x573C, symBinAddr: 0x10000697C, symSize: 0x34 }
  - { offsetInCU: 0x13A2F, offset: 0x13A2F, size: 0x8, addend: 0x0, symName: __ZNSt3__122__compressed_pair_elemINS_9allocatorINS_11__tree_nodeI6PersonPvEEEELi1ELb1EEC2B8ue170006ENS_16__value_init_tagE, symObjAddr: 0x5770, symBinAddr: 0x1000069B0, symSize: 0x2C }
  - { offsetInCU: 0x13A63, offset: 0x13A63, size: 0x8, addend: 0x0, symName: __ZNSt3__19allocatorINS_11__tree_nodeI6PersonPvEEEC2B8ue170006Ev, symObjAddr: 0x579C, symBinAddr: 0x1000069DC, symSize: 0x2C }
  - { offsetInCU: 0x13A8D, offset: 0x13A8D, size: 0x8, addend: 0x0, symName: __ZNSt3__116__non_trivial_ifILb1ENS_9allocatorINS_11__tree_nodeI6PersonPvEEEEEC2B8ue170006Ev, symObjAddr: 0x57C8, symBinAddr: 0x100006A08, symSize: 0x14 }
  - { offsetInCU: 0x13AB7, offset: 0x13AB7, size: 0x8, addend: 0x0, symName: __ZNSt3__117__compressed_pairImNS_4lessI6PersonEEEC2B8ue170006IiRKS3_EEOT_OT0_, symObjAddr: 0x57DC, symBinAddr: 0x100006A1C, symSize: 0x44 }
  - { offsetInCU: 0x13B0F, offset: 0x13B0F, size: 0x8, addend: 0x0, symName: __ZNSt3__122__compressed_pair_elemINS_4lessI6PersonEELi1ELb1EEC2B8ue170006IRKS3_vEEOT_, symObjAddr: 0x5820, symBinAddr: 0x100006A60, symSize: 0x18 }
  - { offsetInCU: 0x13B51, offset: 0x13B51, size: 0x8, addend: 0x0, symName: __ZNSt3__117__compressed_pairINS_15__tree_end_nodeIPNS_16__tree_node_baseIPvEEEENS_9allocatorINS_11__tree_nodeI6PersonS3_EEEEE5firstB8ue170006Ev, symObjAddr: 0x5838, symBinAddr: 0x100006A78, symSize: 0x24 }
  - { offsetInCU: 0x13B77, offset: 0x13B77, size: 0x8, addend: 0x0, symName: __ZNKSt3__13setI6PersonNS_4lessIS1_EENS_9allocatorIS1_EEE4cendB8ue170006Ev, symObjAddr: 0x585C, symBinAddr: 0x100006A9C, symSize: 0x2C }
  - { offsetInCU: 0x13B9D, offset: 0x13B9D, size: 0x8, addend: 0x0, symName: __ZNSt3__16__treeI6PersonNS_4lessIS1_EENS_9allocatorIS1_EEE15__insert_uniqueB8ue170006ENS_21__tree_const_iteratorIS1_PNS_11__tree_nodeIS1_PvEElEERKS1_, symObjAddr: 0x5888, symBinAddr: 0x100006AC8, symSize: 0x64 }
  - { offsetInCU: 0x13BE1, offset: 0x13BE1, size: 0x8, addend: 0x0, symName: __ZNKSt3__13setI6PersonNS_4lessIS1_EENS_9allocatorIS1_EEE3endB8ue170006Ev, symObjAddr: 0x58EC, symBinAddr: 0x100006B2C, symSize: 0x2C }
  - { offsetInCU: 0x13C07, offset: 0x13C07, size: 0x8, addend: 0x0, symName: __ZNKSt3__16__treeI6PersonNS_4lessIS1_EENS_9allocatorIS1_EEE3endB8ue170006Ev, symObjAddr: 0x5918, symBinAddr: 0x100006B58, symSize: 0x34 }
  - { offsetInCU: 0x13C2D, offset: 0x13C2D, size: 0x8, addend: 0x0, symName: __ZNKSt3__16__treeI6PersonNS_4lessIS1_EENS_9allocatorIS1_EEE10__end_nodeB8ue170006Ev, symObjAddr: 0x594C, symBinAddr: 0x100006B8C, symSize: 0x2C }
  - { offsetInCU: 0x13C53, offset: 0x13C53, size: 0x8, addend: 0x0, symName: __ZNSt3__121__tree_const_iteratorI6PersonPNS_11__tree_nodeIS1_PvEElEC1B8ue170006EPNS_15__tree_end_nodeIPNS_16__tree_node_baseIS3_EEEE, symObjAddr: 0x5978, symBinAddr: 0x100006BB8, symSize: 0x34 }
  - { offsetInCU: 0x13C8C, offset: 0x13C8C, size: 0x8, addend: 0x0, symName: __ZNKSt3__117__compressed_pairINS_15__tree_end_nodeIPNS_16__tree_node_baseIPvEEEENS_9allocatorINS_11__tree_nodeI6PersonS3_EEEEE5firstB8ue170006Ev, symObjAddr: 0x59AC, symBinAddr: 0x100006BEC, symSize: 0x24 }
  - { offsetInCU: 0x13CB2, offset: 0x13CB2, size: 0x8, addend: 0x0, symName: __ZNSt3__121__tree_const_iteratorI6PersonPNS_11__tree_nodeIS1_PvEElEC2B8ue170006EPNS_15__tree_end_nodeIPNS_16__tree_node_baseIS3_EEEE, symObjAddr: 0x59D0, symBinAddr: 0x100006C10, symSize: 0x20 }
  - { offsetInCU: 0x13CEB, offset: 0x13CEB, size: 0x8, addend: 0x0, symName: __ZNSt3__16__treeI6PersonNS_4lessIS1_EENS_9allocatorIS1_EEE30__emplace_hint_unique_key_argsIS1_JRKS1_EEENS_4pairINS_15__tree_iteratorIS1_PNS_11__tree_nodeIS1_PvEElEEbEENS_21__tree_const_iteratorIS1_SF_lEERKT_DpOT0_, symObjAddr: 0x59F0, symBinAddr: 0x100006C30, symSize: 0x104 }
  - { offsetInCU: 0x13DB7, offset: 0x13DB7, size: 0x8, addend: 0x0, symName: __ZNSt3__122__tree_key_value_typesI6PersonE9__get_keyB8ue170006ERKS1_, symObjAddr: 0x5AF4, symBinAddr: 0x100006D34, symSize: 0x14 }
  - { offsetInCU: 0x13DDB, offset: 0x13DDB, size: 0x8, addend: 0x0, symName: __ZNSt3__16__treeI6PersonNS_4lessIS1_EENS_9allocatorIS1_EEE12__find_equalIS1_EERPNS_16__tree_node_baseIPvEENS_21__tree_const_iteratorIS1_PNS_11__tree_nodeIS1_S9_EElEERPNS_15__tree_end_nodeISB_EESC_RKT_, symObjAddr: 0x5B08, symBinAddr: 0x100006D48, symSize: 0x304 }
  - { offsetInCU: 0x13E84, offset: 0x13E84, size: 0x8, addend: 0x0, symName: __ZNSt3__16__treeI6PersonNS_4lessIS1_EENS_9allocatorIS1_EEE16__construct_nodeIJRKS1_EEENS_10unique_ptrINS_11__tree_nodeIS1_PvEENS_22__tree_node_destructorINS4_ISD_EEEEEEDpOT_, symObjAddr: 0x5E0C, symBinAddr: 0x10000704C, symSize: 0x110 }
  - { offsetInCU: 0x13EE5, offset: 0x13EE5, size: 0x8, addend: 0x0, symName: __ZNSt3__16__treeI6PersonNS_4lessIS1_EENS_9allocatorIS1_EEE16__insert_node_atEPNS_15__tree_end_nodeIPNS_16__tree_node_baseIPvEEEERSB_SB_, symObjAddr: 0x5F1C, symBinAddr: 0x10000715C, symSize: 0xCC }
  - { offsetInCU: 0x13F3A, offset: 0x13F3A, size: 0x8, addend: 0x0, symName: __ZNKSt3__110unique_ptrINS_11__tree_nodeI6PersonPvEENS_22__tree_node_destructorINS_9allocatorIS4_EEEEE3getB8ue170006Ev, symObjAddr: 0x5FE8, symBinAddr: 0x100007228, symSize: 0x28 }
  - { offsetInCU: 0x13F60, offset: 0x13F60, size: 0x8, addend: 0x0, symName: __ZNSt3__110unique_ptrINS_11__tree_nodeI6PersonPvEENS_22__tree_node_destructorINS_9allocatorIS4_EEEEE7releaseB8ue170006Ev, symObjAddr: 0x6010, symBinAddr: 0x100007250, symSize: 0x44 }
  - { offsetInCU: 0x13F95, offset: 0x13F95, size: 0x8, addend: 0x0, symName: __ZNSt3__110unique_ptrINS_11__tree_nodeI6PersonPvEENS_22__tree_node_destructorINS_9allocatorIS4_EEEEED1B8ue170006Ev, symObjAddr: 0x6054, symBinAddr: 0x100007294, symSize: 0x2C }
  - { offsetInCU: 0x13FBF, offset: 0x13FBF, size: 0x8, addend: 0x0, symName: __ZNSt3__115__tree_iteratorI6PersonPNS_11__tree_nodeIS1_PvEElEC1B8ue170006ES5_, symObjAddr: 0x6080, symBinAddr: 0x1000072C0, symSize: 0x34 }
  - { offsetInCU: 0x13FFD, offset: 0x13FFD, size: 0x8, addend: 0x0, symName: __ZNSt3__14pairINS_15__tree_iteratorI6PersonPNS_11__tree_nodeIS2_PvEElEEbEC1B8ue170006IS7_RbLS4_0EEEOT_OT0_, symObjAddr: 0x60B4, symBinAddr: 0x1000072F4, symSize: 0x3C }
  - { offsetInCU: 0x1405B, offset: 0x1405B, size: 0x8, addend: 0x0, symName: __ZNSt3__16__treeI6PersonNS_4lessIS1_EENS_9allocatorIS1_EEE3endB8ue170006Ev, symObjAddr: 0x6120, symBinAddr: 0x100007360, symSize: 0x34 }
  - { offsetInCU: 0x14081, offset: 0x14081, size: 0x8, addend: 0x0, symName: __ZNSt3__121__tree_const_iteratorI6PersonPNS_11__tree_nodeIS1_PvEElEC1B8ue170006ENS_15__tree_iteratorIS1_S5_lEE, symObjAddr: 0x6154, symBinAddr: 0x100007394, symSize: 0x34 }
  - { offsetInCU: 0x140BA, offset: 0x140BA, size: 0x8, addend: 0x0, symName: __ZNSt3__16__treeI6PersonNS_4lessIS1_EENS_9allocatorIS1_EEE10value_compB8ue170006Ev, symObjAddr: 0x6188, symBinAddr: 0x1000073C8, symSize: 0x28 }
  - { offsetInCU: 0x140E0, offset: 0x140E0, size: 0x8, addend: 0x0, symName: __ZNKSt3__14lessI6PersonEclB8ue170006ERKS1_S4_, symObjAddr: 0x61B0, symBinAddr: 0x1000073F0, symSize: 0x34 }
  - { offsetInCU: 0x14124, offset: 0x14124, size: 0x8, addend: 0x0, symName: __ZNKSt3__121__tree_const_iteratorI6PersonPNS_11__tree_nodeIS1_PvEElEdeB8ue170006Ev, symObjAddr: 0x61E4, symBinAddr: 0x100007424, symSize: 0x28 }
  - { offsetInCU: 0x1414A, offset: 0x1414A, size: 0x8, addend: 0x0, symName: __ZNSt3__16__treeI6PersonNS_4lessIS1_EENS_9allocatorIS1_EEE5beginB8ue170006Ev, symObjAddr: 0x620C, symBinAddr: 0x10000744C, symSize: 0x34 }
  - { offsetInCU: 0x14170, offset: 0x14170, size: 0x8, addend: 0x0, symName: __ZNSt3__121__tree_const_iteratorI6PersonPNS_11__tree_nodeIS1_PvEElEmmB8ue170006Ev, symObjAddr: 0x6240, symBinAddr: 0x100007480, symSize: 0x38 }
  - { offsetInCU: 0x14196, offset: 0x14196, size: 0x8, addend: 0x0, symName: __ZNSt3__16__treeI6PersonNS_4lessIS1_EENS_9allocatorIS1_EEE12__find_equalIS1_EERPNS_16__tree_node_baseIPvEERPNS_15__tree_end_nodeISB_EERKT_, symObjAddr: 0x6278, symBinAddr: 0x1000074B8, symSize: 0x184 }
  - { offsetInCU: 0x14203, offset: 0x14203, size: 0x8, addend: 0x0, symName: __ZNKSt3__121__tree_const_iteratorI6PersonPNS_11__tree_nodeIS1_PvEElE8__get_npB8ue170006Ev, symObjAddr: 0x6438, symBinAddr: 0x100007678, symSize: 0x18 }
  - { offsetInCU: 0x14229, offset: 0x14229, size: 0x8, addend: 0x0, symName: __ZNSt3__115__tree_iteratorI6PersonPNS_11__tree_nodeIS1_PvEElEC1B8ue170006EPNS_15__tree_end_nodeIPNS_16__tree_node_baseIS3_EEEE, symObjAddr: 0x6450, symBinAddr: 0x100007690, symSize: 0x34 }
  - { offsetInCU: 0x14262, offset: 0x14262, size: 0x8, addend: 0x0, symName: __ZNSt3__115__tree_iteratorI6PersonPNS_11__tree_nodeIS1_PvEElEC2B8ue170006EPNS_15__tree_end_nodeIPNS_16__tree_node_baseIS3_EEEE, symObjAddr: 0x6484, symBinAddr: 0x1000076C4, symSize: 0x20 }
  - { offsetInCU: 0x1429B, offset: 0x1429B, size: 0x8, addend: 0x0, symName: __ZNSt3__121__tree_const_iteratorI6PersonPNS_11__tree_nodeIS1_PvEElEC2B8ue170006ENS_15__tree_iteratorIS1_S5_lEE, symObjAddr: 0x64A4, symBinAddr: 0x1000076E4, symSize: 0x20 }
  - { offsetInCU: 0x142D4, offset: 0x142D4, size: 0x8, addend: 0x0, symName: __ZNSt3__117__compressed_pairImNS_4lessI6PersonEEE6secondB8ue170006Ev, symObjAddr: 0x64C4, symBinAddr: 0x100007704, symSize: 0x24 }
  - { offsetInCU: 0x142FA, offset: 0x142FA, size: 0x8, addend: 0x0, symName: __ZNSt3__122__compressed_pair_elemINS_4lessI6PersonEELi1ELb1EE5__getB8ue170006Ev, symObjAddr: 0x64E8, symBinAddr: 0x100007728, symSize: 0x14 }
  - { offsetInCU: 0x14320, offset: 0x14320, size: 0x8, addend: 0x0, symName: __ZNK6PersonltERKS_, symObjAddr: 0x64FC, symBinAddr: 0x10000773C, symSize: 0x30 }
  - { offsetInCU: 0x14354, offset: 0x14354, size: 0x8, addend: 0x0, symName: __ZNKSt3__16__treeI6PersonNS_4lessIS1_EENS_9allocatorIS1_EEE6__rootB8ue170006Ev, symObjAddr: 0x652C, symBinAddr: 0x10000776C, symSize: 0x28 }
  - { offsetInCU: 0x1437A, offset: 0x1437A, size: 0x8, addend: 0x0, symName: __ZNKSt3__16__treeI6PersonNS_4lessIS1_EENS_9allocatorIS1_EEE10__root_ptrB8ue170006Ev, symObjAddr: 0x6554, symBinAddr: 0x100007794, symSize: 0x24 }
  - { offsetInCU: 0x143A0, offset: 0x143A0, size: 0x8, addend: 0x0, symName: __ZNSt3__121__tree_const_iteratorI6PersonPNS_11__tree_nodeIS1_PvEElEppB8ue170006Ev, symObjAddr: 0x6654, symBinAddr: 0x100007894, symSize: 0x38 }
  - { offsetInCU: 0x143C6, offset: 0x143C6, size: 0x8, addend: 0x0, symName: __ZNSt3__16__treeI6PersonNS_4lessIS1_EENS_9allocatorIS1_EEE12__node_allocB8ue170006Ev, symObjAddr: 0x668C, symBinAddr: 0x1000078CC, symSize: 0x28 }
  - { offsetInCU: 0x143EC, offset: 0x143EC, size: 0x8, addend: 0x0, symName: __ZNSt3__116allocator_traitsINS_9allocatorINS_11__tree_nodeI6PersonPvEEEEE8allocateB8ue170006ERS6_m, symObjAddr: 0x66B4, symBinAddr: 0x1000078F4, symSize: 0x2C }
  - { offsetInCU: 0x1441F, offset: 0x1441F, size: 0x8, addend: 0x0, symName: __ZNSt3__122__tree_node_destructorINS_9allocatorINS_11__tree_nodeI6PersonPvEEEEEC1B8ue170006ERS6_b, symObjAddr: 0x66E0, symBinAddr: 0x100007920, symSize: 0x48 }
  - { offsetInCU: 0x1446C, offset: 0x1446C, size: 0x8, addend: 0x0, symName: __ZNSt3__110unique_ptrINS_11__tree_nodeI6PersonPvEENS_22__tree_node_destructorINS_9allocatorIS4_EEEEEC1B8ue170006ILb1EvEEPS4_NS_16__dependent_typeINS_27__unique_ptr_deleter_sfinaeIS8_EEXT_EE20__good_rval_ref_typeE, symObjAddr: 0x6728, symBinAddr: 0x100007968, symSize: 0x3C }
  - { offsetInCU: 0x144BD, offset: 0x144BD, size: 0x8, addend: 0x0, symName: __ZNSt3__116allocator_traitsINS_9allocatorINS_11__tree_nodeI6PersonPvEEEEE9constructB8ue170006IS3_JRKS3_EvEEvRS6_PT_DpOT0_, symObjAddr: 0x6764, symBinAddr: 0x1000079A4, symSize: 0x34 }
  - { offsetInCU: 0x14514, offset: 0x14514, size: 0x8, addend: 0x0, symName: __ZNSt3__122__tree_key_value_typesI6PersonE9__get_ptrB8ue170006ERS1_, symObjAddr: 0x6798, symBinAddr: 0x1000079D8, symSize: 0x14 }
  - { offsetInCU: 0x14538, offset: 0x14538, size: 0x8, addend: 0x0, symName: __ZNKSt3__110unique_ptrINS_11__tree_nodeI6PersonPvEENS_22__tree_node_destructorINS_9allocatorIS4_EEEEEptB8ue170006Ev, symObjAddr: 0x67AC, symBinAddr: 0x1000079EC, symSize: 0x28 }
  - { offsetInCU: 0x1455E, offset: 0x1455E, size: 0x8, addend: 0x0, symName: __ZNSt3__110unique_ptrINS_11__tree_nodeI6PersonPvEENS_22__tree_node_destructorINS_9allocatorIS4_EEEEE11get_deleterB8ue170006Ev, symObjAddr: 0x67D4, symBinAddr: 0x100007A14, symSize: 0x24 }
  - { offsetInCU: 0x14584, offset: 0x14584, size: 0x8, addend: 0x0, symName: __ZNSt3__117__compressed_pairINS_15__tree_end_nodeIPNS_16__tree_node_baseIPvEEEENS_9allocatorINS_11__tree_nodeI6PersonS3_EEEEE6secondB8ue170006Ev, symObjAddr: 0x67F8, symBinAddr: 0x100007A38, symSize: 0x24 }
  - { offsetInCU: 0x145AA, offset: 0x145AA, size: 0x8, addend: 0x0, symName: __ZNSt3__122__compressed_pair_elemINS_9allocatorINS_11__tree_nodeI6PersonPvEEEELi1ELb1EE5__getB8ue170006Ev, symObjAddr: 0x681C, symBinAddr: 0x100007A5C, symSize: 0x14 }
  - { offsetInCU: 0x145D0, offset: 0x145D0, size: 0x8, addend: 0x0, symName: __ZNSt3__19allocatorINS_11__tree_nodeI6PersonPvEEE8allocateB8ue170006Em, symObjAddr: 0x6830, symBinAddr: 0x100007A70, symSize: 0x58 }
  - { offsetInCU: 0x1460E, offset: 0x1460E, size: 0x8, addend: 0x0, symName: __ZNSt3__116allocator_traitsINS_9allocatorINS_11__tree_nodeI6PersonPvEEEEE8max_sizeB8ue170006IS6_vEEmRKS6_, symObjAddr: 0x6888, symBinAddr: 0x100007AC8, symSize: 0x24 }
  - { offsetInCU: 0x1463C, offset: 0x1463C, size: 0x8, addend: 0x0, symName: __ZNKSt3__19allocatorINS_11__tree_nodeI6PersonPvEEE8max_sizeB8ue170006Ev, symObjAddr: 0x68AC, symBinAddr: 0x100007AEC, symSize: 0x14 }
  - { offsetInCU: 0x14662, offset: 0x14662, size: 0x8, addend: 0x0, symName: __ZNSt3__122__tree_node_destructorINS_9allocatorINS_11__tree_nodeI6PersonPvEEEEEC2B8ue170006ERS6_b, symObjAddr: 0x68C0, symBinAddr: 0x100007B00, symSize: 0x38 }
  - { offsetInCU: 0x146AA, offset: 0x146AA, size: 0x8, addend: 0x0, symName: __ZNSt3__110unique_ptrINS_11__tree_nodeI6PersonPvEENS_22__tree_node_destructorINS_9allocatorIS4_EEEEEC2B8ue170006ILb1EvEEPS4_NS_16__dependent_typeINS_27__unique_ptr_deleter_sfinaeIS8_EEXT_EE20__good_rval_ref_typeE, symObjAddr: 0x68F8, symBinAddr: 0x100007B38, symSize: 0x48 }
  - { offsetInCU: 0x146FB, offset: 0x146FB, size: 0x8, addend: 0x0, symName: __ZNSt3__117__compressed_pairIPNS_11__tree_nodeI6PersonPvEENS_22__tree_node_destructorINS_9allocatorIS4_EEEEEC1B8ue170006IRS5_S9_EEOT_OT0_, symObjAddr: 0x6940, symBinAddr: 0x100007B80, symSize: 0x3C }
  - { offsetInCU: 0x14753, offset: 0x14753, size: 0x8, addend: 0x0, symName: __ZNSt3__117__compressed_pairIPNS_11__tree_nodeI6PersonPvEENS_22__tree_node_destructorINS_9allocatorIS4_EEEEEC2B8ue170006IRS5_S9_EEOT_OT0_, symObjAddr: 0x697C, symBinAddr: 0x100007BBC, symSize: 0x48 }
  - { offsetInCU: 0x147AB, offset: 0x147AB, size: 0x8, addend: 0x0, symName: __ZNSt3__122__compressed_pair_elemIPNS_11__tree_nodeI6PersonPvEELi0ELb0EEC2B8ue170006IRS5_vEEOT_, symObjAddr: 0x69C4, symBinAddr: 0x100007C04, symSize: 0x24 }
  - { offsetInCU: 0x147ED, offset: 0x147ED, size: 0x8, addend: 0x0, symName: __ZNSt3__122__compressed_pair_elemINS_22__tree_node_destructorINS_9allocatorINS_11__tree_nodeI6PersonPvEEEEEELi1ELb0EEC2B8ue170006IS8_vEEOT_, symObjAddr: 0x69E8, symBinAddr: 0x100007C28, symSize: 0x24 }
  - { offsetInCU: 0x1482F, offset: 0x1482F, size: 0x8, addend: 0x0, symName: __ZNSt3__19allocatorINS_11__tree_nodeI6PersonPvEEE9constructB8ue170006IS2_JRKS2_EEEvPT_DpOT0_, symObjAddr: 0x6A0C, symBinAddr: 0x100007C4C, symSize: 0x30 }
  - { offsetInCU: 0x14885, offset: 0x14885, size: 0x8, addend: 0x0, symName: __ZN6PersonC1ERKS_, symObjAddr: 0x6A3C, symBinAddr: 0x100007C7C, symSize: 0x34 }
  - { offsetInCU: 0x148BA, offset: 0x148BA, size: 0x8, addend: 0x0, symName: __ZN6PersonC2ERKS_, symObjAddr: 0x6A70, symBinAddr: 0x100007CB0, symSize: 0x40 }
  - { offsetInCU: 0x148EF, offset: 0x148EF, size: 0x8, addend: 0x0, symName: __ZNKSt3__117__compressed_pairIPNS_11__tree_nodeI6PersonPvEENS_22__tree_node_destructorINS_9allocatorIS4_EEEEE5firstB8ue170006Ev, symObjAddr: 0x6AB0, symBinAddr: 0x100007CF0, symSize: 0x24 }
  - { offsetInCU: 0x14915, offset: 0x14915, size: 0x8, addend: 0x0, symName: __ZNKSt3__122__compressed_pair_elemIPNS_11__tree_nodeI6PersonPvEELi0ELb0EE5__getB8ue170006Ev, symObjAddr: 0x6AD4, symBinAddr: 0x100007D14, symSize: 0x14 }
  - { offsetInCU: 0x1493B, offset: 0x1493B, size: 0x8, addend: 0x0, symName: __ZNSt3__117__compressed_pairIPNS_11__tree_nodeI6PersonPvEENS_22__tree_node_destructorINS_9allocatorIS4_EEEEE6secondB8ue170006Ev, symObjAddr: 0x6AE8, symBinAddr: 0x100007D28, symSize: 0x28 }
  - { offsetInCU: 0x14961, offset: 0x14961, size: 0x8, addend: 0x0, symName: __ZNSt3__122__compressed_pair_elemINS_22__tree_node_destructorINS_9allocatorINS_11__tree_nodeI6PersonPvEEEEEELi1ELb0EE5__getB8ue170006Ev, symObjAddr: 0x6B10, symBinAddr: 0x100007D50, symSize: 0x14 }
  - { offsetInCU: 0x14987, offset: 0x14987, size: 0x8, addend: 0x0, symName: __ZNSt3__16__treeI6PersonNS_4lessIS1_EENS_9allocatorIS1_EEE4sizeB8ue170006Ev, symObjAddr: 0x6B24, symBinAddr: 0x100007D64, symSize: 0x28 }
  - { offsetInCU: 0x149AD, offset: 0x149AD, size: 0x8, addend: 0x0, symName: __ZNSt3__117__compressed_pairImNS_4lessI6PersonEEE5firstB8ue170006Ev, symObjAddr: 0x6B4C, symBinAddr: 0x100007D8C, symSize: 0x24 }
  - { offsetInCU: 0x149D3, offset: 0x149D3, size: 0x8, addend: 0x0, symName: __ZNSt3__117__compressed_pairIPNS_11__tree_nodeI6PersonPvEENS_22__tree_node_destructorINS_9allocatorIS4_EEEEE5firstB8ue170006Ev, symObjAddr: 0x6B70, symBinAddr: 0x100007DB0, symSize: 0x24 }
  - { offsetInCU: 0x149F9, offset: 0x149F9, size: 0x8, addend: 0x0, symName: __ZNSt3__122__compressed_pair_elemIPNS_11__tree_nodeI6PersonPvEELi0ELb0EE5__getB8ue170006Ev, symObjAddr: 0x6B94, symBinAddr: 0x100007DD4, symSize: 0x14 }
  - { offsetInCU: 0x14A1F, offset: 0x14A1F, size: 0x8, addend: 0x0, symName: __ZNSt3__110unique_ptrINS_11__tree_nodeI6PersonPvEENS_22__tree_node_destructorINS_9allocatorIS4_EEEEED2B8ue170006Ev, symObjAddr: 0x6BA8, symBinAddr: 0x100007DE8, symSize: 0x30 }
  - { offsetInCU: 0x14A49, offset: 0x14A49, size: 0x8, addend: 0x0, symName: __ZNSt3__110unique_ptrINS_11__tree_nodeI6PersonPvEENS_22__tree_node_destructorINS_9allocatorIS4_EEEEE5resetB8ue170006EPS4_, symObjAddr: 0x6BD8, symBinAddr: 0x100007E18, symSize: 0x78 }
  - { offsetInCU: 0x14A8D, offset: 0x14A8D, size: 0x8, addend: 0x0, symName: __ZNSt3__122__tree_node_destructorINS_9allocatorINS_11__tree_nodeI6PersonPvEEEEEclB8ue170006EPS5_, symObjAddr: 0x6C50, symBinAddr: 0x100007E90, symSize: 0x90 }
  - { offsetInCU: 0x14AC2, offset: 0x14AC2, size: 0x8, addend: 0x0, symName: __ZNSt3__116allocator_traitsINS_9allocatorINS_11__tree_nodeI6PersonPvEEEEE7destroyB8ue170006IS3_vvEEvRS6_PT_, symObjAddr: 0x6CE0, symBinAddr: 0x100007F20, symSize: 0x28 }
  - { offsetInCU: 0x14AFD, offset: 0x14AFD, size: 0x8, addend: 0x0, symName: __ZNSt3__116allocator_traitsINS_9allocatorINS_11__tree_nodeI6PersonPvEEEEE10deallocateB8ue170006ERS6_PS5_m, symObjAddr: 0x6D08, symBinAddr: 0x100007F48, symSize: 0x34 }
  - { offsetInCU: 0x14B3F, offset: 0x14B3F, size: 0x8, addend: 0x0, symName: __ZNSt3__19allocatorINS_11__tree_nodeI6PersonPvEEE10deallocateB8ue170006EPS4_m, symObjAddr: 0x6D3C, symBinAddr: 0x100007F7C, symSize: 0x40 }
  - { offsetInCU: 0x14B81, offset: 0x14B81, size: 0x8, addend: 0x0, symName: __ZNSt3__115__tree_iteratorI6PersonPNS_11__tree_nodeIS1_PvEElEC2B8ue170006ES5_, symObjAddr: 0x6D7C, symBinAddr: 0x100007FBC, symSize: 0x20 }
  - { offsetInCU: 0x14BBA, offset: 0x14BBA, size: 0x8, addend: 0x0, symName: __ZNSt3__14pairINS_15__tree_iteratorI6PersonPNS_11__tree_nodeIS2_PvEElEEbEC2B8ue170006IS7_RbLS4_0EEEOT_OT0_, symObjAddr: 0x6D9C, symBinAddr: 0x100007FDC, symSize: 0x38 }
  - { offsetInCU: 0x14C18, offset: 0x14C18, size: 0x8, addend: 0x0, symName: __ZNSt3__16__treeI6PersonNS_4lessIS1_EENS_9allocatorIS1_EEED2Ev, symObjAddr: 0x6DD4, symBinAddr: 0x100008014, symSize: 0x38 }
  - { offsetInCU: 0x14C44, offset: 0x14C44, size: 0x8, addend: 0x0, symName: __ZNSt3__16__treeI6PersonNS_4lessIS1_EENS_9allocatorIS1_EEE7destroyEPNS_11__tree_nodeIS1_PvEE, symObjAddr: 0x6E0C, symBinAddr: 0x10000804C, symSize: 0x9C }
  - { offsetInCU: 0x14C98, offset: 0x14C98, size: 0x8, addend: 0x0, symName: __ZNSt3__13setI6PersonNS_4lessIS1_EENS_9allocatorIS1_EEED2B8ue170006Ev, symObjAddr: 0x6EA8, symBinAddr: 0x1000080E8, symSize: 0x2C }
  - { offsetInCU: 0x14CC2, offset: 0x14CC2, size: 0x8, addend: 0x0, symName: __ZNKSt3__13setI6PersonNS_4lessIS1_EENS_9allocatorIS1_EEE5beginB8ue170006Ev, symObjAddr: 0x6ED4, symBinAddr: 0x100008114, symSize: 0x2C }
  - { offsetInCU: 0x14CE8, offset: 0x14CE8, size: 0x8, addend: 0x0, symName: __ZNKSt3__16__treeI6PersonNS_4lessIS1_EENS_9allocatorIS1_EEE5beginB8ue170006Ev, symObjAddr: 0x6F00, symBinAddr: 0x100008140, symSize: 0x34 }
  - { offsetInCU: 0x14D0E, offset: 0x14D0E, size: 0x8, addend: 0x0, symName: __ZNKSt3__16__treeI6PersonNS_4lessIS1_EENS_9allocatorIS1_EEE12__begin_nodeB8ue170006Ev, symObjAddr: 0x6F34, symBinAddr: 0x100008174, symSize: 0x14 }
  - { offsetInCU: 0x14D34, offset: 0x14D34, size: 0x8, addend: 0x0, symName: __ZNSt3__16__treeI6PersonNS_4lessIS1_EENS_9allocatorIS1_EEE16__emplace_uniqueB8ue170006IJRA6_KciEEENS_4pairINS_15__tree_iteratorIS1_PNS_11__tree_nodeIS1_PvEElEEbEEDpOT_, symObjAddr: 0x6F48, symBinAddr: 0x100008188, symSize: 0x44 }
  - { offsetInCU: 0x14D88, offset: 0x14D88, size: 0x8, addend: 0x0, symName: __ZNSt3__14pairINS_21__tree_const_iteratorI6PersonPNS_11__tree_nodeIS2_PvEElEEbEC1B8ue170006INS_15__tree_iteratorIS2_S6_lEEbLS4_0EEEONS0_IT_T0_EE, symObjAddr: 0x6F8C, symBinAddr: 0x1000081CC, symSize: 0x34 }
  - { offsetInCU: 0x14DD9, offset: 0x14DD9, size: 0x8, addend: 0x0, symName: __ZNSt3__16__treeI6PersonNS_4lessIS1_EENS_9allocatorIS1_EEE21__emplace_unique_implIJRA6_KciEEENS_4pairINS_15__tree_iteratorIS1_PNS_11__tree_nodeIS1_PvEElEEbEEDpOT_, symObjAddr: 0x6FC0, symBinAddr: 0x100008200, symSize: 0x12C }
  - { offsetInCU: 0x14E7E, offset: 0x14E7E, size: 0x8, addend: 0x0, symName: __ZNSt3__16__treeI6PersonNS_4lessIS1_EENS_9allocatorIS1_EEE16__construct_nodeIJRA6_KciEEENS_10unique_ptrINS_11__tree_nodeIS1_PvEENS_22__tree_node_destructorINS4_ISE_EEEEEEDpOT_, symObjAddr: 0x70EC, symBinAddr: 0x10000832C, symSize: 0x110 }
  - { offsetInCU: 0x14EF3, offset: 0x14EF3, size: 0x8, addend: 0x0, symName: __ZNSt3__116allocator_traitsINS_9allocatorINS_11__tree_nodeI6PersonPvEEEEE9constructB8ue170006IS3_JRA6_KciEvEEvRS6_PT_DpOT0_, symObjAddr: 0x71FC, symBinAddr: 0x10000843C, symSize: 0x3C }
  - { offsetInCU: 0x14F5E, offset: 0x14F5E, size: 0x8, addend: 0x0, symName: __ZNSt3__19allocatorINS_11__tree_nodeI6PersonPvEEE9constructB8ue170006IS2_JRA6_KciEEEvPT_DpOT0_, symObjAddr: 0x7238, symBinAddr: 0x100008478, symSize: 0x80 }
  - { offsetInCU: 0x14FC7, offset: 0x14FC7, size: 0x8, addend: 0x0, symName: __ZNSt3__14pairINS_21__tree_const_iteratorI6PersonPNS_11__tree_nodeIS2_PvEElEEbEC2B8ue170006INS_15__tree_iteratorIS2_S6_lEEbLS4_0EEEONS0_IT_T0_EE, symObjAddr: 0x72B8, symBinAddr: 0x1000084F8, symSize: 0x50 }
  - { offsetInCU: 0x15018, offset: 0x15018, size: 0x8, addend: 0x0, symName: __ZNSt3__16__treeI6PersonNS_4lessIS1_EENS_9allocatorIS1_EEE4findIS1_EENS_15__tree_iteratorIS1_PNS_11__tree_nodeIS1_PvEElEERKT_, symObjAddr: 0x7308, symBinAddr: 0x100008548, symSize: 0xF8 }
  - { offsetInCU: 0x15067, offset: 0x15067, size: 0x8, addend: 0x0, symName: __ZNSt3__16__treeI6PersonNS_4lessIS1_EENS_9allocatorIS1_EEE13__lower_boundIS1_EENS_15__tree_iteratorIS1_PNS_11__tree_nodeIS1_PvEElEERKT_SC_PNS_15__tree_end_nodeIPNS_16__tree_node_baseISA_EEEE, symObjAddr: 0x7400, symBinAddr: 0x100008640, symSize: 0xA4 }
  - { offsetInCU: 0x150C5, offset: 0x150C5, size: 0x8, addend: 0x0, symName: __ZNKSt3__115__tree_iteratorI6PersonPNS_11__tree_nodeIS1_PvEElEdeB8ue170006Ev, symObjAddr: 0x74D8, symBinAddr: 0x100008718, symSize: 0x28 }
  - { offsetInCU: 0x150EB, offset: 0x150EB, size: 0x8, addend: 0x0, symName: __ZNKSt3__115__tree_iteratorI6PersonPNS_11__tree_nodeIS1_PvEElE8__get_npB8ue170006Ev, symObjAddr: 0x7530, symBinAddr: 0x100008770, symSize: 0x18 }
  - { offsetInCU: 0x15111, offset: 0x15111, size: 0x8, addend: 0x0, symName: __ZNSt3__16__treeI6PersonNS_4lessIS1_EENS_9allocatorIS1_EEE5eraseENS_21__tree_const_iteratorIS1_PNS_11__tree_nodeIS1_PvEElEE, symObjAddr: 0x7548, symBinAddr: 0x100008788, symSize: 0x98 }
  - { offsetInCU: 0x15175, offset: 0x15175, size: 0x8, addend: 0x0, symName: __ZNSt3__16__treeI6PersonNS_4lessIS1_EENS_9allocatorIS1_EEE21__remove_node_pointerEPNS_11__tree_nodeIS1_PvEE, symObjAddr: 0x75E0, symBinAddr: 0x100008820, symSize: 0xB4 }
  - { offsetInCU: 0x151BB, offset: 0x151BB, size: 0x8, addend: 0x0, symName: __ZNSt3__115__tree_iteratorI6PersonPNS_11__tree_nodeIS1_PvEElEppB8ue170006Ev, symObjAddr: 0x7694, symBinAddr: 0x1000088D4, symSize: 0x38 }
  - { offsetInCU: 0x151E1, offset: 0x151E1, size: 0x8, addend: 0x0, symName: __ZNSt3__13setINS_12basic_stringIcNS_11char_traitsIcEENS_9allocatorIcEEEENS_4lessIS6_EENS4_IS6_EEEC2B8ue170006ESt16initializer_listIS6_ERKS8_, symObjAddr: 0x7E2C, symBinAddr: 0x10000906C, symSize: 0x94 }
  - { offsetInCU: 0x15229, offset: 0x15229, size: 0x8, addend: 0x0, symName: __ZNSt3__16__treeINS_12basic_stringIcNS_11char_traitsIcEENS_9allocatorIcEEEENS_4lessIS6_EENS4_IS6_EEEC1ERKS8_, symObjAddr: 0x7EC0, symBinAddr: 0x100009100, symSize: 0x34 }
  - { offsetInCU: 0x15264, offset: 0x15264, size: 0x8, addend: 0x0, symName: __ZNSt3__13setINS_12basic_stringIcNS_11char_traitsIcEENS_9allocatorIcEEEENS_4lessIS6_EENS4_IS6_EEE6insertB8ue170006IPKS6_EEvT_SE_, symObjAddr: 0x7EF4, symBinAddr: 0x100009134, symSize: 0x80 }
  - { offsetInCU: 0x152CE, offset: 0x152CE, size: 0x8, addend: 0x0, symName: __ZNKSt16initializer_listINSt3__112basic_stringIcNS0_11char_traitsIcEENS0_9allocatorIcEEEEE5beginB8ue170006Ev, symObjAddr: 0x7F74, symBinAddr: 0x1000091B4, symSize: 0x18 }
  - { offsetInCU: 0x152F4, offset: 0x152F4, size: 0x8, addend: 0x0, symName: __ZNKSt16initializer_listINSt3__112basic_stringIcNS0_11char_traitsIcEENS0_9allocatorIcEEEEE3endB8ue170006Ev, symObjAddr: 0x7F8C, symBinAddr: 0x1000091CC, symSize: 0x28 }
  - { offsetInCU: 0x1531A, offset: 0x1531A, size: 0x8, addend: 0x0, symName: __ZNSt3__16__treeINS_12basic_stringIcNS_11char_traitsIcEENS_9allocatorIcEEEENS_4lessIS6_EENS4_IS6_EEED1Ev, symObjAddr: 0x7FB4, symBinAddr: 0x1000091F4, symSize: 0x2C }
  - { offsetInCU: 0x15346, offset: 0x15346, size: 0x8, addend: 0x0, symName: __ZNSt3__16__treeINS_12basic_stringIcNS_11char_traitsIcEENS_9allocatorIcEEEENS_4lessIS6_EENS4_IS6_EEEC2ERKS8_, symObjAddr: 0x7FE0, symBinAddr: 0x100009220, symSize: 0x7C }
  - { offsetInCU: 0x15381, offset: 0x15381, size: 0x8, addend: 0x0, symName: __ZNSt3__117__compressed_pairINS_15__tree_end_nodeIPNS_16__tree_node_baseIPvEEEENS_9allocatorINS_11__tree_nodeINS_12basic_stringIcNS_11char_traitsIcEENS7_IcEEEES3_EEEEEC1B8ue170006ILb1EvEEv, symObjAddr: 0x805C, symBinAddr: 0x10000929C, symSize: 0x2C }
  - { offsetInCU: 0x153B6, offset: 0x153B6, size: 0x8, addend: 0x0, symName: __ZNSt3__117__compressed_pairImNS_4lessINS_12basic_stringIcNS_11char_traitsIcEENS_9allocatorIcEEEEEEEC1B8ue170006IiRKS8_EEOT_OT0_, symObjAddr: 0x8088, symBinAddr: 0x1000092C8, symSize: 0x3C }
  - { offsetInCU: 0x1540E, offset: 0x1540E, size: 0x8, addend: 0x0, symName: __ZNSt3__16__treeINS_12basic_stringIcNS_11char_traitsIcEENS_9allocatorIcEEEENS_4lessIS6_EENS4_IS6_EEE10__end_nodeB8ue170006Ev, symObjAddr: 0x80C4, symBinAddr: 0x100009304, symSize: 0x2C }
  - { offsetInCU: 0x15434, offset: 0x15434, size: 0x8, addend: 0x0, symName: __ZNSt3__16__treeINS_12basic_stringIcNS_11char_traitsIcEENS_9allocatorIcEEEENS_4lessIS6_EENS4_IS6_EEE12__begin_nodeB8ue170006Ev, symObjAddr: 0x80F0, symBinAddr: 0x100009330, symSize: 0x14 }
  - { offsetInCU: 0x1545A, offset: 0x1545A, size: 0x8, addend: 0x0, symName: __ZNSt3__117__compressed_pairINS_15__tree_end_nodeIPNS_16__tree_node_baseIPvEEEENS_9allocatorINS_11__tree_nodeINS_12basic_stringIcNS_11char_traitsIcEENS7_IcEEEES3_EEEEEC2B8ue170006ILb1EvEEv, symObjAddr: 0x8104, symBinAddr: 0x100009344, symSize: 0x34 }
  - { offsetInCU: 0x1548F, offset: 0x1548F, size: 0x8, addend: 0x0, symName: __ZNSt3__122__compressed_pair_elemINS_9allocatorINS_11__tree_nodeINS_12basic_stringIcNS_11char_traitsIcEENS1_IcEEEEPvEEEELi1ELb1EEC2B8ue170006ENS_16__value_init_tagE, symObjAddr: 0x8138, symBinAddr: 0x100009378, symSize: 0x2C }
  - { offsetInCU: 0x154C3, offset: 0x154C3, size: 0x8, addend: 0x0, symName: __ZNSt3__19allocatorINS_11__tree_nodeINS_12basic_stringIcNS_11char_traitsIcEENS0_IcEEEEPvEEEC2B8ue170006Ev, symObjAddr: 0x8164, symBinAddr: 0x1000093A4, symSize: 0x2C }
  - { offsetInCU: 0x154ED, offset: 0x154ED, size: 0x8, addend: 0x0, symName: __ZNSt3__116__non_trivial_ifILb1ENS_9allocatorINS_11__tree_nodeINS_12basic_stringIcNS_11char_traitsIcEENS1_IcEEEEPvEEEEEC2B8ue170006Ev, symObjAddr: 0x8190, symBinAddr: 0x1000093D0, symSize: 0x14 }
  - { offsetInCU: 0x15517, offset: 0x15517, size: 0x8, addend: 0x0, symName: __ZNSt3__117__compressed_pairImNS_4lessINS_12basic_stringIcNS_11char_traitsIcEENS_9allocatorIcEEEEEEEC2B8ue170006IiRKS8_EEOT_OT0_, symObjAddr: 0x81A4, symBinAddr: 0x1000093E4, symSize: 0x44 }
  - { offsetInCU: 0x1556F, offset: 0x1556F, size: 0x8, addend: 0x0, symName: __ZNSt3__122__compressed_pair_elemINS_4lessINS_12basic_stringIcNS_11char_traitsIcEENS_9allocatorIcEEEEEELi1ELb1EEC2B8ue170006IRKS8_vEEOT_, symObjAddr: 0x81E8, symBinAddr: 0x100009428, symSize: 0x18 }
  - { offsetInCU: 0x155B1, offset: 0x155B1, size: 0x8, addend: 0x0, symName: __ZNSt3__117__compressed_pairINS_15__tree_end_nodeIPNS_16__tree_node_baseIPvEEEENS_9allocatorINS_11__tree_nodeINS_12basic_stringIcNS_11char_traitsIcEENS7_IcEEEES3_EEEEE5firstB8ue170006Ev, symObjAddr: 0x8200, symBinAddr: 0x100009440, symSize: 0x24 }
  - { offsetInCU: 0x155D7, offset: 0x155D7, size: 0x8, addend: 0x0, symName: __ZNKSt3__13setINS_12basic_stringIcNS_11char_traitsIcEENS_9allocatorIcEEEENS_4lessIS6_EENS4_IS6_EEE4cendB8ue170006Ev, symObjAddr: 0x8224, symBinAddr: 0x100009464, symSize: 0x2C }
  - { offsetInCU: 0x155FD, offset: 0x155FD, size: 0x8, addend: 0x0, symName: __ZNSt3__16__treeINS_12basic_stringIcNS_11char_traitsIcEENS_9allocatorIcEEEENS_4lessIS6_EENS4_IS6_EEE15__insert_uniqueB8ue170006ENS_21__tree_const_iteratorIS6_PNS_11__tree_nodeIS6_PvEElEERKS6_, symObjAddr: 0x8250, symBinAddr: 0x100009490, symSize: 0x64 }
  - { offsetInCU: 0x15641, offset: 0x15641, size: 0x8, addend: 0x0, symName: __ZNKSt3__13setINS_12basic_stringIcNS_11char_traitsIcEENS_9allocatorIcEEEENS_4lessIS6_EENS4_IS6_EEE3endB8ue170006Ev, symObjAddr: 0x82B4, symBinAddr: 0x1000094F4, symSize: 0x2C }
  - { offsetInCU: 0x15667, offset: 0x15667, size: 0x8, addend: 0x0, symName: __ZNKSt3__16__treeINS_12basic_stringIcNS_11char_traitsIcEENS_9allocatorIcEEEENS_4lessIS6_EENS4_IS6_EEE3endB8ue170006Ev, symObjAddr: 0x82E0, symBinAddr: 0x100009520, symSize: 0x34 }
  - { offsetInCU: 0x1568D, offset: 0x1568D, size: 0x8, addend: 0x0, symName: __ZNKSt3__16__treeINS_12basic_stringIcNS_11char_traitsIcEENS_9allocatorIcEEEENS_4lessIS6_EENS4_IS6_EEE10__end_nodeB8ue170006Ev, symObjAddr: 0x8314, symBinAddr: 0x100009554, symSize: 0x2C }
  - { offsetInCU: 0x156B3, offset: 0x156B3, size: 0x8, addend: 0x0, symName: __ZNSt3__121__tree_const_iteratorINS_12basic_stringIcNS_11char_traitsIcEENS_9allocatorIcEEEEPNS_11__tree_nodeIS6_PvEElEC1B8ue170006EPNS_15__tree_end_nodeIPNS_16__tree_node_baseIS8_EEEE, symObjAddr: 0x8340, symBinAddr: 0x100009580, symSize: 0x34 }
  - { offsetInCU: 0x156EC, offset: 0x156EC, size: 0x8, addend: 0x0, symName: __ZNKSt3__117__compressed_pairINS_15__tree_end_nodeIPNS_16__tree_node_baseIPvEEEENS_9allocatorINS_11__tree_nodeINS_12basic_stringIcNS_11char_traitsIcEENS7_IcEEEES3_EEEEE5firstB8ue170006Ev, symObjAddr: 0x8374, symBinAddr: 0x1000095B4, symSize: 0x24 }
  - { offsetInCU: 0x15712, offset: 0x15712, size: 0x8, addend: 0x0, symName: __ZNSt3__121__tree_const_iteratorINS_12basic_stringIcNS_11char_traitsIcEENS_9allocatorIcEEEEPNS_11__tree_nodeIS6_PvEElEC2B8ue170006EPNS_15__tree_end_nodeIPNS_16__tree_node_baseIS8_EEEE, symObjAddr: 0x8398, symBinAddr: 0x1000095D8, symSize: 0x20 }
  - { offsetInCU: 0x1574B, offset: 0x1574B, size: 0x8, addend: 0x0, symName: __ZNSt3__16__treeINS_12basic_stringIcNS_11char_traitsIcEENS_9allocatorIcEEEENS_4lessIS6_EENS4_IS6_EEE30__emplace_hint_unique_key_argsIS6_JRKS6_EEENS_4pairINS_15__tree_iteratorIS6_PNS_11__tree_nodeIS6_PvEElEEbEENS_21__tree_const_iteratorIS6_SJ_lEERKT_DpOT0_, symObjAddr: 0x83B8, symBinAddr: 0x1000095F8, symSize: 0x104 }
  - { offsetInCU: 0x15817, offset: 0x15817, size: 0x8, addend: 0x0, symName: __ZNSt3__122__tree_key_value_typesINS_12basic_stringIcNS_11char_traitsIcEENS_9allocatorIcEEEEE9__get_keyB8ue170006ERKS6_, symObjAddr: 0x84BC, symBinAddr: 0x1000096FC, symSize: 0x14 }
  - { offsetInCU: 0x1583B, offset: 0x1583B, size: 0x8, addend: 0x0, symName: __ZNSt3__16__treeINS_12basic_stringIcNS_11char_traitsIcEENS_9allocatorIcEEEENS_4lessIS6_EENS4_IS6_EEE12__find_equalIS6_EERPNS_16__tree_node_baseIPvEENS_21__tree_const_iteratorIS6_PNS_11__tree_nodeIS6_SD_EElEERPNS_15__tree_end_nodeISF_EESG_RKT_, symObjAddr: 0x84D0, symBinAddr: 0x100009710, symSize: 0x304 }
  - { offsetInCU: 0x158E4, offset: 0x158E4, size: 0x8, addend: 0x0, symName: __ZNSt3__16__treeINS_12basic_stringIcNS_11char_traitsIcEENS_9allocatorIcEEEENS_4lessIS6_EENS4_IS6_EEE16__construct_nodeIJRKS6_EEENS_10unique_ptrINS_11__tree_nodeIS6_PvEENS_22__tree_node_destructorINS4_ISH_EEEEEEDpOT_, symObjAddr: 0x87D4, symBinAddr: 0x100009A14, symSize: 0x110 }
  - { offsetInCU: 0x15945, offset: 0x15945, size: 0x8, addend: 0x0, symName: __ZNSt3__16__treeINS_12basic_stringIcNS_11char_traitsIcEENS_9allocatorIcEEEENS_4lessIS6_EENS4_IS6_EEE16__insert_node_atEPNS_15__tree_end_nodeIPNS_16__tree_node_baseIPvEEEERSF_SF_, symObjAddr: 0x88E4, symBinAddr: 0x100009B24, symSize: 0xCC }
  - { offsetInCU: 0x1599A, offset: 0x1599A, size: 0x8, addend: 0x0, symName: __ZNKSt3__110unique_ptrINS_11__tree_nodeINS_12basic_stringIcNS_11char_traitsIcEENS_9allocatorIcEEEEPvEENS_22__tree_node_destructorINS5_IS9_EEEEE3getB8ue170006Ev, symObjAddr: 0x89B0, symBinAddr: 0x100009BF0, symSize: 0x28 }
  - { offsetInCU: 0x159C0, offset: 0x159C0, size: 0x8, addend: 0x0, symName: __ZNSt3__110unique_ptrINS_11__tree_nodeINS_12basic_stringIcNS_11char_traitsIcEENS_9allocatorIcEEEEPvEENS_22__tree_node_destructorINS5_IS9_EEEEE7releaseB8ue170006Ev, symObjAddr: 0x89D8, symBinAddr: 0x100009C18, symSize: 0x44 }
  - { offsetInCU: 0x159F5, offset: 0x159F5, size: 0x8, addend: 0x0, symName: __ZNSt3__110unique_ptrINS_11__tree_nodeINS_12basic_stringIcNS_11char_traitsIcEENS_9allocatorIcEEEEPvEENS_22__tree_node_destructorINS5_IS9_EEEEED1B8ue170006Ev, symObjAddr: 0x8A1C, symBinAddr: 0x100009C5C, symSize: 0x2C }
  - { offsetInCU: 0x15A1F, offset: 0x15A1F, size: 0x8, addend: 0x0, symName: __ZNSt3__115__tree_iteratorINS_12basic_stringIcNS_11char_traitsIcEENS_9allocatorIcEEEEPNS_11__tree_nodeIS6_PvEElEC1B8ue170006ESA_, symObjAddr: 0x8A48, symBinAddr: 0x100009C88, symSize: 0x34 }
  - { offsetInCU: 0x15A5D, offset: 0x15A5D, size: 0x8, addend: 0x0, symName: __ZNSt3__14pairINS_15__tree_iteratorINS_12basic_stringIcNS_11char_traitsIcEENS_9allocatorIcEEEEPNS_11__tree_nodeIS7_PvEElEEbEC1B8ue170006ISC_RbLS9_0EEEOT_OT0_, symObjAddr: 0x8A7C, symBinAddr: 0x100009CBC, symSize: 0x3C }
  - { offsetInCU: 0x15ABB, offset: 0x15ABB, size: 0x8, addend: 0x0, symName: __ZNSt3__16__treeINS_12basic_stringIcNS_11char_traitsIcEENS_9allocatorIcEEEENS_4lessIS6_EENS4_IS6_EEE3endB8ue170006Ev, symObjAddr: 0x8AE8, symBinAddr: 0x100009D28, symSize: 0x34 }
  - { offsetInCU: 0x15AE1, offset: 0x15AE1, size: 0x8, addend: 0x0, symName: __ZNSt3__121__tree_const_iteratorINS_12basic_stringIcNS_11char_traitsIcEENS_9allocatorIcEEEEPNS_11__tree_nodeIS6_PvEElEC1B8ue170006ENS_15__tree_iteratorIS6_SA_lEE, symObjAddr: 0x8B1C, symBinAddr: 0x100009D5C, symSize: 0x34 }
  - { offsetInCU: 0x15B1A, offset: 0x15B1A, size: 0x8, addend: 0x0, symName: __ZNSt3__16__treeINS_12basic_stringIcNS_11char_traitsIcEENS_9allocatorIcEEEENS_4lessIS6_EENS4_IS6_EEE10value_compB8ue170006Ev, symObjAddr: 0x8B50, symBinAddr: 0x100009D90, symSize: 0x28 }
  - { offsetInCU: 0x15B40, offset: 0x15B40, size: 0x8, addend: 0x0, symName: __ZNKSt3__14lessINS_12basic_stringIcNS_11char_traitsIcEENS_9allocatorIcEEEEEclB8ue170006ERKS6_S9_, symObjAddr: 0x8B78, symBinAddr: 0x100009DB8, symSize: 0x34 }
  - { offsetInCU: 0x15B84, offset: 0x15B84, size: 0x8, addend: 0x0, symName: __ZNSt3__16__treeINS_12basic_stringIcNS_11char_traitsIcEENS_9allocatorIcEEEENS_4lessIS6_EENS4_IS6_EEE5beginB8ue170006Ev, symObjAddr: 0x8BAC, symBinAddr: 0x100009DEC, symSize: 0x34 }
  - { offsetInCU: 0x15BAA, offset: 0x15BAA, size: 0x8, addend: 0x0, symName: __ZNSt3__121__tree_const_iteratorINS_12basic_stringIcNS_11char_traitsIcEENS_9allocatorIcEEEEPNS_11__tree_nodeIS6_PvEElEmmB8ue170006Ev, symObjAddr: 0x8BE0, symBinAddr: 0x100009E20, symSize: 0x38 }
  - { offsetInCU: 0x15BD0, offset: 0x15BD0, size: 0x8, addend: 0x0, symName: __ZNSt3__16__treeINS_12basic_stringIcNS_11char_traitsIcEENS_9allocatorIcEEEENS_4lessIS6_EENS4_IS6_EEE12__find_equalIS6_EERPNS_16__tree_node_baseIPvEERPNS_15__tree_end_nodeISF_EERKT_, symObjAddr: 0x8C18, symBinAddr: 0x100009E58, symSize: 0x184 }
  - { offsetInCU: 0x15C3D, offset: 0x15C3D, size: 0x8, addend: 0x0, symName: __ZNKSt3__121__tree_const_iteratorINS_12basic_stringIcNS_11char_traitsIcEENS_9allocatorIcEEEEPNS_11__tree_nodeIS6_PvEElE8__get_npB8ue170006Ev, symObjAddr: 0x8DD8, symBinAddr: 0x10000A018, symSize: 0x18 }
  - { offsetInCU: 0x15C63, offset: 0x15C63, size: 0x8, addend: 0x0, symName: __ZNSt3__115__tree_iteratorINS_12basic_stringIcNS_11char_traitsIcEENS_9allocatorIcEEEEPNS_11__tree_nodeIS6_PvEElEC1B8ue170006EPNS_15__tree_end_nodeIPNS_16__tree_node_baseIS8_EEEE, symObjAddr: 0x8DF0, symBinAddr: 0x10000A030, symSize: 0x34 }
  - { offsetInCU: 0x15C9C, offset: 0x15C9C, size: 0x8, addend: 0x0, symName: __ZNSt3__115__tree_iteratorINS_12basic_stringIcNS_11char_traitsIcEENS_9allocatorIcEEEEPNS_11__tree_nodeIS6_PvEElEC2B8ue170006EPNS_15__tree_end_nodeIPNS_16__tree_node_baseIS8_EEEE, symObjAddr: 0x8E24, symBinAddr: 0x10000A064, symSize: 0x20 }
  - { offsetInCU: 0x15CD5, offset: 0x15CD5, size: 0x8, addend: 0x0, symName: __ZNSt3__121__tree_const_iteratorINS_12basic_stringIcNS_11char_traitsIcEENS_9allocatorIcEEEEPNS_11__tree_nodeIS6_PvEElEC2B8ue170006ENS_15__tree_iteratorIS6_SA_lEE, symObjAddr: 0x8E44, symBinAddr: 0x10000A084, symSize: 0x20 }
  - { offsetInCU: 0x15D0E, offset: 0x15D0E, size: 0x8, addend: 0x0, symName: __ZNSt3__117__compressed_pairImNS_4lessINS_12basic_stringIcNS_11char_traitsIcEENS_9allocatorIcEEEEEEE6secondB8ue170006Ev, symObjAddr: 0x8E64, symBinAddr: 0x10000A0A4, symSize: 0x24 }
  - { offsetInCU: 0x15D34, offset: 0x15D34, size: 0x8, addend: 0x0, symName: __ZNSt3__122__compressed_pair_elemINS_4lessINS_12basic_stringIcNS_11char_traitsIcEENS_9allocatorIcEEEEEELi1ELb1EE5__getB8ue170006Ev, symObjAddr: 0x8E88, symBinAddr: 0x10000A0C8, symSize: 0x14 }
  - { offsetInCU: 0x15D5A, offset: 0x15D5A, size: 0x8, addend: 0x0, symName: __ZNKSt3__112basic_stringIcNS_11char_traitsIcEENS_9allocatorIcEEE7compareB8ue170006ERKS5_, symObjAddr: 0x8ED4, symBinAddr: 0x10000A114, symSize: 0x4C }
  - { offsetInCU: 0x15D91, offset: 0x15D91, size: 0x8, addend: 0x0, symName: __ZNKSt3__112basic_stringIcNS_11char_traitsIcEENS_9allocatorIcEEE7compareINS_17basic_string_viewIcS2_EELi0EEEiRKT_, symObjAddr: 0x8F20, symBinAddr: 0x10000A160, symSize: 0x12C }
  - { offsetInCU: 0x15E14, offset: 0x15E14, size: 0x8, addend: 0x0, symName: __ZNKSt3__112basic_stringIcNS_11char_traitsIcEENS_9allocatorIcEEEcvNS_17basic_string_viewIcS2_EEB8ue170006Ev, symObjAddr: 0x904C, symBinAddr: 0x10000A28C, symSize: 0x50 }
  - { offsetInCU: 0x15E3A, offset: 0x15E3A, size: 0x8, addend: 0x0, symName: __ZNKSt3__117basic_string_viewIcNS_11char_traitsIcEEE4sizeB8ue170006Ev, symObjAddr: 0x909C, symBinAddr: 0x10000A2DC, symSize: 0x18 }
  - { offsetInCU: 0x15E60, offset: 0x15E60, size: 0x8, addend: 0x0, symName: __ZNSt3__111char_traitsIcE7compareB8ue170006EPKcS3_m, symObjAddr: 0x90B4, symBinAddr: 0x10000A2F4, symSize: 0x34 }
  - { offsetInCU: 0x15E9F, offset: 0x15E9F, size: 0x8, addend: 0x0, symName: __ZNKSt3__117basic_string_viewIcNS_11char_traitsIcEEE4dataB8ue170006Ev, symObjAddr: 0x90E8, symBinAddr: 0x10000A328, symSize: 0x18 }
  - { offsetInCU: 0x15ECF, offset: 0x15ECF, size: 0x8, addend: 0x0, symName: __ZNKSt3__16__lessIvvEclB8ue170006ImmEEbRKT_RKT0_, symObjAddr: 0x9180, symBinAddr: 0x10000A3C0, symSize: 0x34 }
  - { offsetInCU: 0x15F23, offset: 0x15F23, size: 0x8, addend: 0x0, symName: __ZNSt3__117basic_string_viewIcNS_11char_traitsIcEEEC1B8ue170006EPKcm, symObjAddr: 0x91B4, symBinAddr: 0x10000A3F4, symSize: 0x3C }
  - { offsetInCU: 0x15F6B, offset: 0x15F6B, size: 0x8, addend: 0x0, symName: __ZNSt3__117basic_string_viewIcNS_11char_traitsIcEEEC2B8ue170006EPKcm, symObjAddr: 0x91F0, symBinAddr: 0x10000A430, symSize: 0x2C }
  - { offsetInCU: 0x15FB3, offset: 0x15FB3, size: 0x8, addend: 0x0, symName: __ZNKSt3__16__treeINS_12basic_stringIcNS_11char_traitsIcEENS_9allocatorIcEEEENS_4lessIS6_EENS4_IS6_EEE6__rootB8ue170006Ev, symObjAddr: 0x921C, symBinAddr: 0x10000A45C, symSize: 0x28 }
  - { offsetInCU: 0x15FD9, offset: 0x15FD9, size: 0x8, addend: 0x0, symName: __ZNKSt3__16__treeINS_12basic_stringIcNS_11char_traitsIcEENS_9allocatorIcEEEENS_4lessIS6_EENS4_IS6_EEE10__root_ptrB8ue170006Ev, symObjAddr: 0x9244, symBinAddr: 0x10000A484, symSize: 0x24 }
  - { offsetInCU: 0x15FFF, offset: 0x15FFF, size: 0x8, addend: 0x0, symName: __ZNSt3__121__tree_const_iteratorINS_12basic_stringIcNS_11char_traitsIcEENS_9allocatorIcEEEEPNS_11__tree_nodeIS6_PvEElEppB8ue170006Ev, symObjAddr: 0x9344, symBinAddr: 0x10000A584, symSize: 0x38 }
  - { offsetInCU: 0x16025, offset: 0x16025, size: 0x8, addend: 0x0, symName: __ZNSt3__16__treeINS_12basic_stringIcNS_11char_traitsIcEENS_9allocatorIcEEEENS_4lessIS6_EENS4_IS6_EEE12__node_allocB8ue170006Ev, symObjAddr: 0x937C, symBinAddr: 0x10000A5BC, symSize: 0x28 }
  - { offsetInCU: 0x1604B, offset: 0x1604B, size: 0x8, addend: 0x0, symName: __ZNSt3__116allocator_traitsINS_9allocatorINS_11__tree_nodeINS_12basic_stringIcNS_11char_traitsIcEENS1_IcEEEEPvEEEEE8allocateB8ue170006ERSA_m, symObjAddr: 0x93A4, symBinAddr: 0x10000A5E4, symSize: 0x2C }
  - { offsetInCU: 0x1607E, offset: 0x1607E, size: 0x8, addend: 0x0, symName: __ZNSt3__122__tree_node_destructorINS_9allocatorINS_11__tree_nodeINS_12basic_stringIcNS_11char_traitsIcEENS1_IcEEEEPvEEEEEC1B8ue170006ERSA_b, symObjAddr: 0x93D0, symBinAddr: 0x10000A610, symSize: 0x48 }
  - { offsetInCU: 0x160CB, offset: 0x160CB, size: 0x8, addend: 0x0, symName: __ZNSt3__110unique_ptrINS_11__tree_nodeINS_12basic_stringIcNS_11char_traitsIcEENS_9allocatorIcEEEEPvEENS_22__tree_node_destructorINS5_IS9_EEEEEC1B8ue170006ILb1EvEEPS9_NS_16__dependent_typeINS_27__unique_ptr_deleter_sfinaeISC_EEXT_EE20__good_rval_ref_typeE, symObjAddr: 0x9418, symBinAddr: 0x10000A658, symSize: 0x3C }
  - { offsetInCU: 0x1611C, offset: 0x1611C, size: 0x8, addend: 0x0, symName: __ZNSt3__116allocator_traitsINS_9allocatorINS_11__tree_nodeINS_12basic_stringIcNS_11char_traitsIcEENS1_IcEEEEPvEEEEE9constructB8ue170006IS7_JRKS7_EvEEvRSA_PT_DpOT0_, symObjAddr: 0x9454, symBinAddr: 0x10000A694, symSize: 0x34 }
  - { offsetInCU: 0x16173, offset: 0x16173, size: 0x8, addend: 0x0, symName: __ZNSt3__122__tree_key_value_typesINS_12basic_stringIcNS_11char_traitsIcEENS_9allocatorIcEEEEE9__get_ptrB8ue170006ERS6_, symObjAddr: 0x9488, symBinAddr: 0x10000A6C8, symSize: 0x14 }
  - { offsetInCU: 0x16197, offset: 0x16197, size: 0x8, addend: 0x0, symName: __ZNKSt3__110unique_ptrINS_11__tree_nodeINS_12basic_stringIcNS_11char_traitsIcEENS_9allocatorIcEEEEPvEENS_22__tree_node_destructorINS5_IS9_EEEEEptB8ue170006Ev, symObjAddr: 0x949C, symBinAddr: 0x10000A6DC, symSize: 0x28 }
  - { offsetInCU: 0x161BD, offset: 0x161BD, size: 0x8, addend: 0x0, symName: __ZNSt3__110unique_ptrINS_11__tree_nodeINS_12basic_stringIcNS_11char_traitsIcEENS_9allocatorIcEEEEPvEENS_22__tree_node_destructorINS5_IS9_EEEEE11get_deleterB8ue170006Ev, symObjAddr: 0x94C4, symBinAddr: 0x10000A704, symSize: 0x24 }
  - { offsetInCU: 0x161E3, offset: 0x161E3, size: 0x8, addend: 0x0, symName: __ZNSt3__117__compressed_pairINS_15__tree_end_nodeIPNS_16__tree_node_baseIPvEEEENS_9allocatorINS_11__tree_nodeINS_12basic_stringIcNS_11char_traitsIcEENS7_IcEEEES3_EEEEE6secondB8ue170006Ev, symObjAddr: 0x94E8, symBinAddr: 0x10000A728, symSize: 0x24 }
  - { offsetInCU: 0x16209, offset: 0x16209, size: 0x8, addend: 0x0, symName: __ZNSt3__122__compressed_pair_elemINS_9allocatorINS_11__tree_nodeINS_12basic_stringIcNS_11char_traitsIcEENS1_IcEEEEPvEEEELi1ELb1EE5__getB8ue170006Ev, symObjAddr: 0x950C, symBinAddr: 0x10000A74C, symSize: 0x14 }
  - { offsetInCU: 0x1622F, offset: 0x1622F, size: 0x8, addend: 0x0, symName: __ZNSt3__19allocatorINS_11__tree_nodeINS_12basic_stringIcNS_11char_traitsIcEENS0_IcEEEEPvEEE8allocateB8ue170006Em, symObjAddr: 0x9520, symBinAddr: 0x10000A760, symSize: 0x5C }
  - { offsetInCU: 0x1626D, offset: 0x1626D, size: 0x8, addend: 0x0, symName: __ZNSt3__116allocator_traitsINS_9allocatorINS_11__tree_nodeINS_12basic_stringIcNS_11char_traitsIcEENS1_IcEEEEPvEEEEE8max_sizeB8ue170006ISA_vEEmRKSA_, symObjAddr: 0x957C, symBinAddr: 0x10000A7BC, symSize: 0x24 }
  - { offsetInCU: 0x1629B, offset: 0x1629B, size: 0x8, addend: 0x0, symName: __ZNKSt3__19allocatorINS_11__tree_nodeINS_12basic_stringIcNS_11char_traitsIcEENS0_IcEEEEPvEEE8max_sizeB8ue170006Ev, symObjAddr: 0x95A0, symBinAddr: 0x10000A7E0, symSize: 0x20 }
  - { offsetInCU: 0x162C1, offset: 0x162C1, size: 0x8, addend: 0x0, symName: __ZNSt3__122__tree_node_destructorINS_9allocatorINS_11__tree_nodeINS_12basic_stringIcNS_11char_traitsIcEENS1_IcEEEEPvEEEEEC2B8ue170006ERSA_b, symObjAddr: 0x95C0, symBinAddr: 0x10000A800, symSize: 0x38 }
  - { offsetInCU: 0x16309, offset: 0x16309, size: 0x8, addend: 0x0, symName: __ZNSt3__110unique_ptrINS_11__tree_nodeINS_12basic_stringIcNS_11char_traitsIcEENS_9allocatorIcEEEEPvEENS_22__tree_node_destructorINS5_IS9_EEEEEC2B8ue170006ILb1EvEEPS9_NS_16__dependent_typeINS_27__unique_ptr_deleter_sfinaeISC_EEXT_EE20__good_rval_ref_typeE, symObjAddr: 0x95F8, symBinAddr: 0x10000A838, symSize: 0x48 }
  - { offsetInCU: 0x1635A, offset: 0x1635A, size: 0x8, addend: 0x0, symName: __ZNSt3__117__compressed_pairIPNS_11__tree_nodeINS_12basic_stringIcNS_11char_traitsIcEENS_9allocatorIcEEEEPvEENS_22__tree_node_destructorINS5_IS9_EEEEEC1B8ue170006IRSA_SD_EEOT_OT0_, symObjAddr: 0x9640, symBinAddr: 0x10000A880, symSize: 0x3C }
  - { offsetInCU: 0x163B2, offset: 0x163B2, size: 0x8, addend: 0x0, symName: __ZNSt3__117__compressed_pairIPNS_11__tree_nodeINS_12basic_stringIcNS_11char_traitsIcEENS_9allocatorIcEEEEPvEENS_22__tree_node_destructorINS5_IS9_EEEEEC2B8ue170006IRSA_SD_EEOT_OT0_, symObjAddr: 0x967C, symBinAddr: 0x10000A8BC, symSize: 0x48 }
  - { offsetInCU: 0x1640A, offset: 0x1640A, size: 0x8, addend: 0x0, symName: __ZNSt3__122__compressed_pair_elemIPNS_11__tree_nodeINS_12basic_stringIcNS_11char_traitsIcEENS_9allocatorIcEEEEPvEELi0ELb0EEC2B8ue170006IRSA_vEEOT_, symObjAddr: 0x96C4, symBinAddr: 0x10000A904, symSize: 0x24 }
  - { offsetInCU: 0x1644C, offset: 0x1644C, size: 0x8, addend: 0x0, symName: __ZNSt3__122__compressed_pair_elemINS_22__tree_node_destructorINS_9allocatorINS_11__tree_nodeINS_12basic_stringIcNS_11char_traitsIcEENS2_IcEEEEPvEEEEEELi1ELb0EEC2B8ue170006ISC_vEEOT_, symObjAddr: 0x96E8, symBinAddr: 0x10000A928, symSize: 0x24 }
  - { offsetInCU: 0x1648E, offset: 0x1648E, size: 0x8, addend: 0x0, symName: __ZNSt3__19allocatorINS_11__tree_nodeINS_12basic_stringIcNS_11char_traitsIcEENS0_IcEEEEPvEEE9constructB8ue170006IS6_JRKS6_EEEvPT_DpOT0_, symObjAddr: 0x970C, symBinAddr: 0x10000A94C, symSize: 0x30 }
  - { offsetInCU: 0x164E4, offset: 0x164E4, size: 0x8, addend: 0x0, symName: __ZNKSt3__117__compressed_pairIPNS_11__tree_nodeINS_12basic_stringIcNS_11char_traitsIcEENS_9allocatorIcEEEEPvEENS_22__tree_node_destructorINS5_IS9_EEEEE5firstB8ue170006Ev, symObjAddr: 0x973C, symBinAddr: 0x10000A97C, symSize: 0x24 }
  - { offsetInCU: 0x1650A, offset: 0x1650A, size: 0x8, addend: 0x0, symName: __ZNKSt3__122__compressed_pair_elemIPNS_11__tree_nodeINS_12basic_stringIcNS_11char_traitsIcEENS_9allocatorIcEEEEPvEELi0ELb0EE5__getB8ue170006Ev, symObjAddr: 0x9760, symBinAddr: 0x10000A9A0, symSize: 0x14 }
  - { offsetInCU: 0x16530, offset: 0x16530, size: 0x8, addend: 0x0, symName: __ZNSt3__117__compressed_pairIPNS_11__tree_nodeINS_12basic_stringIcNS_11char_traitsIcEENS_9allocatorIcEEEEPvEENS_22__tree_node_destructorINS5_IS9_EEEEE6secondB8ue170006Ev, symObjAddr: 0x9774, symBinAddr: 0x10000A9B4, symSize: 0x28 }
  - { offsetInCU: 0x16556, offset: 0x16556, size: 0x8, addend: 0x0, symName: __ZNSt3__122__compressed_pair_elemINS_22__tree_node_destructorINS_9allocatorINS_11__tree_nodeINS_12basic_stringIcNS_11char_traitsIcEENS2_IcEEEEPvEEEEEELi1ELb0EE5__getB8ue170006Ev, symObjAddr: 0x979C, symBinAddr: 0x10000A9DC, symSize: 0x14 }
  - { offsetInCU: 0x1657C, offset: 0x1657C, size: 0x8, addend: 0x0, symName: __ZNSt3__16__treeINS_12basic_stringIcNS_11char_traitsIcEENS_9allocatorIcEEEENS_4lessIS6_EENS4_IS6_EEE4sizeB8ue170006Ev, symObjAddr: 0x97B0, symBinAddr: 0x10000A9F0, symSize: 0x28 }
  - { offsetInCU: 0x165A2, offset: 0x165A2, size: 0x8, addend: 0x0, symName: __ZNSt3__117__compressed_pairImNS_4lessINS_12basic_stringIcNS_11char_traitsIcEENS_9allocatorIcEEEEEEE5firstB8ue170006Ev, symObjAddr: 0x97D8, symBinAddr: 0x10000AA18, symSize: 0x24 }
  - { offsetInCU: 0x165C8, offset: 0x165C8, size: 0x8, addend: 0x0, symName: __ZNSt3__117__compressed_pairIPNS_11__tree_nodeINS_12basic_stringIcNS_11char_traitsIcEENS_9allocatorIcEEEEPvEENS_22__tree_node_destructorINS5_IS9_EEEEE5firstB8ue170006Ev, symObjAddr: 0x97FC, symBinAddr: 0x10000AA3C, symSize: 0x24 }
  - { offsetInCU: 0x165EE, offset: 0x165EE, size: 0x8, addend: 0x0, symName: __ZNSt3__122__compressed_pair_elemIPNS_11__tree_nodeINS_12basic_stringIcNS_11char_traitsIcEENS_9allocatorIcEEEEPvEELi0ELb0EE5__getB8ue170006Ev, symObjAddr: 0x9820, symBinAddr: 0x10000AA60, symSize: 0x14 }
  - { offsetInCU: 0x16614, offset: 0x16614, size: 0x8, addend: 0x0, symName: __ZNSt3__110unique_ptrINS_11__tree_nodeINS_12basic_stringIcNS_11char_traitsIcEENS_9allocatorIcEEEEPvEENS_22__tree_node_destructorINS5_IS9_EEEEED2B8ue170006Ev, symObjAddr: 0x9834, symBinAddr: 0x10000AA74, symSize: 0x30 }
  - { offsetInCU: 0x1663E, offset: 0x1663E, size: 0x8, addend: 0x0, symName: __ZNSt3__110unique_ptrINS_11__tree_nodeINS_12basic_stringIcNS_11char_traitsIcEENS_9allocatorIcEEEEPvEENS_22__tree_node_destructorINS5_IS9_EEEEE5resetB8ue170006EPS9_, symObjAddr: 0x9864, symBinAddr: 0x10000AAA4, symSize: 0x78 }
  - { offsetInCU: 0x16682, offset: 0x16682, size: 0x8, addend: 0x0, symName: __ZNSt3__122__tree_node_destructorINS_9allocatorINS_11__tree_nodeINS_12basic_stringIcNS_11char_traitsIcEENS1_IcEEEEPvEEEEEclB8ue170006EPS9_, symObjAddr: 0x98DC, symBinAddr: 0x10000AB1C, symSize: 0x90 }
  - { offsetInCU: 0x166B7, offset: 0x166B7, size: 0x8, addend: 0x0, symName: __ZNSt3__116allocator_traitsINS_9allocatorINS_11__tree_nodeINS_12basic_stringIcNS_11char_traitsIcEENS1_IcEEEEPvEEEEE7destroyB8ue170006IS7_vvEEvRSA_PT_, symObjAddr: 0x996C, symBinAddr: 0x10000ABAC, symSize: 0x28 }
  - { offsetInCU: 0x166F2, offset: 0x166F2, size: 0x8, addend: 0x0, symName: __ZNSt3__116allocator_traitsINS_9allocatorINS_11__tree_nodeINS_12basic_stringIcNS_11char_traitsIcEENS1_IcEEEEPvEEEEE10deallocateB8ue170006ERSA_PS9_m, symObjAddr: 0x9994, symBinAddr: 0x10000ABD4, symSize: 0x34 }
  - { offsetInCU: 0x16734, offset: 0x16734, size: 0x8, addend: 0x0, symName: __ZNSt3__19allocatorINS_11__tree_nodeINS_12basic_stringIcNS_11char_traitsIcEENS0_IcEEEEPvEEE10deallocateB8ue170006EPS8_m, symObjAddr: 0x99C8, symBinAddr: 0x10000AC08, symSize: 0x44 }
  - { offsetInCU: 0x16776, offset: 0x16776, size: 0x8, addend: 0x0, symName: __ZNSt3__115__tree_iteratorINS_12basic_stringIcNS_11char_traitsIcEENS_9allocatorIcEEEEPNS_11__tree_nodeIS6_PvEElEC2B8ue170006ESA_, symObjAddr: 0x9A0C, symBinAddr: 0x10000AC4C, symSize: 0x20 }
  - { offsetInCU: 0x167AF, offset: 0x167AF, size: 0x8, addend: 0x0, symName: __ZNSt3__14pairINS_15__tree_iteratorINS_12basic_stringIcNS_11char_traitsIcEENS_9allocatorIcEEEEPNS_11__tree_nodeIS7_PvEElEEbEC2B8ue170006ISC_RbLS9_0EEEOT_OT0_, symObjAddr: 0x9A2C, symBinAddr: 0x10000AC6C, symSize: 0x38 }
  - { offsetInCU: 0x1680D, offset: 0x1680D, size: 0x8, addend: 0x0, symName: __ZNSt3__16__treeINS_12basic_stringIcNS_11char_traitsIcEENS_9allocatorIcEEEENS_4lessIS6_EENS4_IS6_EEED2Ev, symObjAddr: 0x9A64, symBinAddr: 0x10000ACA4, symSize: 0x38 }
  - { offsetInCU: 0x16839, offset: 0x16839, size: 0x8, addend: 0x0, symName: __ZNSt3__16__treeINS_12basic_stringIcNS_11char_traitsIcEENS_9allocatorIcEEEENS_4lessIS6_EENS4_IS6_EEE7destroyEPNS_11__tree_nodeIS6_PvEE, symObjAddr: 0x9A9C, symBinAddr: 0x10000ACDC, symSize: 0x9C }
  - { offsetInCU: 0x1688D, offset: 0x1688D, size: 0x8, addend: 0x0, symName: __ZNSt3__13setINS_12basic_stringIcNS_11char_traitsIcEENS_9allocatorIcEEEENS_4lessIS6_EENS4_IS6_EEED2B8ue170006Ev, symObjAddr: 0x9B38, symBinAddr: 0x10000AD78, symSize: 0x2C }
  - { offsetInCU: 0x168B7, offset: 0x168B7, size: 0x8, addend: 0x0, symName: __ZNKSt3__13setINS_12basic_stringIcNS_11char_traitsIcEENS_9allocatorIcEEEENS_4lessIS6_EENS4_IS6_EEE5beginB8ue170006Ev, symObjAddr: 0x9B64, symBinAddr: 0x10000ADA4, symSize: 0x2C }
  - { offsetInCU: 0x168DD, offset: 0x168DD, size: 0x8, addend: 0x0, symName: __ZNKSt3__16__treeINS_12basic_stringIcNS_11char_traitsIcEENS_9allocatorIcEEEENS_4lessIS6_EENS4_IS6_EEE5beginB8ue170006Ev, symObjAddr: 0x9BC4, symBinAddr: 0x10000AE04, symSize: 0x34 }
  - { offsetInCU: 0x16903, offset: 0x16903, size: 0x8, addend: 0x0, symName: __ZNKSt3__16__treeINS_12basic_stringIcNS_11char_traitsIcEENS_9allocatorIcEEEENS_4lessIS6_EENS4_IS6_EEE12__begin_nodeB8ue170006Ev, symObjAddr: 0x9BF8, symBinAddr: 0x10000AE38, symSize: 0x14 }
  - { offsetInCU: 0x16929, offset: 0x16929, size: 0x8, addend: 0x0, symName: __ZNSt3__16__treeINS_12basic_stringIcNS_11char_traitsIcEENS_9allocatorIcEEEENS_4lessIS6_EENS4_IS6_EEE15__insert_uniqueB8ue170006EOS6_, symObjAddr: 0x9C0C, symBinAddr: 0x10000AE4C, symSize: 0x50 }
  - { offsetInCU: 0x1695E, offset: 0x1695E, size: 0x8, addend: 0x0, symName: __ZNSt3__14pairINS_21__tree_const_iteratorINS_12basic_stringIcNS_11char_traitsIcEENS_9allocatorIcEEEEPNS_11__tree_nodeIS7_PvEElEEbEC1B8ue170006INS_15__tree_iteratorIS7_SB_lEEbLS9_0EEEONS0_IT_T0_EE, symObjAddr: 0x9C5C, symBinAddr: 0x10000AE9C, symSize: 0x34 }
  - { offsetInCU: 0x169B4, offset: 0x169B4, size: 0x8, addend: 0x0, symName: __ZNSt3__16__treeINS_12basic_stringIcNS_11char_traitsIcEENS_9allocatorIcEEEENS_4lessIS6_EENS4_IS6_EEE25__emplace_unique_key_argsIS6_JS6_EEENS_4pairINS_15__tree_iteratorIS6_PNS_11__tree_nodeIS6_PvEElEEbEERKT_DpOT0_, symObjAddr: 0x9C90, symBinAddr: 0x10000AED0, symSize: 0xF0 }
  - { offsetInCU: 0x16A60, offset: 0x16A60, size: 0x8, addend: 0x0, symName: __ZNSt3__16__treeINS_12basic_stringIcNS_11char_traitsIcEENS_9allocatorIcEEEENS_4lessIS6_EENS4_IS6_EEE16__construct_nodeIJS6_EEENS_10unique_ptrINS_11__tree_nodeIS6_PvEENS_22__tree_node_destructorINS4_ISF_EEEEEEDpOT_, symObjAddr: 0x9D80, symBinAddr: 0x10000AFC0, symSize: 0x108 }
  - { offsetInCU: 0x16AC1, offset: 0x16AC1, size: 0x8, addend: 0x0, symName: __ZNSt3__116allocator_traitsINS_9allocatorINS_11__tree_nodeINS_12basic_stringIcNS_11char_traitsIcEENS1_IcEEEEPvEEEEE9constructB8ue170006IS7_JS7_EvEEvRSA_PT_DpOT0_, symObjAddr: 0x9E88, symBinAddr: 0x10000B0C8, symSize: 0x34 }
  - { offsetInCU: 0x16B18, offset: 0x16B18, size: 0x8, addend: 0x0, symName: __ZNSt3__19allocatorINS_11__tree_nodeINS_12basic_stringIcNS_11char_traitsIcEENS0_IcEEEEPvEEE9constructB8ue170006IS6_JS6_EEEvPT_DpOT0_, symObjAddr: 0x9EBC, symBinAddr: 0x10000B0FC, symSize: 0x30 }
  - { offsetInCU: 0x16B6E, offset: 0x16B6E, size: 0x8, addend: 0x0, symName: __ZNSt3__112basic_stringIcNS_11char_traitsIcEENS_9allocatorIcEEEC1B8ue170006EOS5_, symObjAddr: 0x9EEC, symBinAddr: 0x10000B12C, symSize: 0x34 }
  - { offsetInCU: 0x16BA7, offset: 0x16BA7, size: 0x8, addend: 0x0, symName: __ZNSt3__112basic_stringIcNS_11char_traitsIcEENS_9allocatorIcEEEC2B8ue170006EOS5_, symObjAddr: 0x9F20, symBinAddr: 0x10000B160, symSize: 0x50 }
  - { offsetInCU: 0x16BE0, offset: 0x16BE0, size: 0x8, addend: 0x0, symName: __ZNSt3__112basic_stringIcNS_11char_traitsIcEENS_9allocatorIcEEE14__default_initB8ue170006Ev, symObjAddr: 0x9F70, symBinAddr: 0x10000B1B0, symSize: 0x40 }
  - { offsetInCU: 0x16C06, offset: 0x16C06, size: 0x8, addend: 0x0, symName: __ZNSt3__14pairINS_21__tree_const_iteratorINS_12basic_stringIcNS_11char_traitsIcEENS_9allocatorIcEEEEPNS_11__tree_nodeIS7_PvEElEEbEC2B8ue170006INS_15__tree_iteratorIS7_SB_lEEbLS9_0EEEONS0_IT_T0_EE, symObjAddr: 0x9FB0, symBinAddr: 0x10000B1F0, symSize: 0x50 }
...
