---
triple:          'arm64-apple-darwin'
binary-path:     main
relocations:
  - { offsetInCU: 0x3FE1, offset: 0x3FE1, size: 0x8, addend: 0x0, symName: __ZNSt3__124__put_character_sequenceB8ue170006IcNS_11char_traitsIcEEEERNS_13basic_ostreamIT_T0_EES7_PKS4_m, symObjAddr: 0x44A4, symBinAddr: 0x100005A54, symSize: 0x1EC }
  - { offsetInCU: 0x744D, offset: 0x744D, size: 0x8, addend: 0x0, symName: '__ZNSt3__116__is_permutationB8ue170006INS_17_ClassicAlgPolicyENS_11__wrap_iterIPZ5test2vE5PointEES5_S5_RZ5test2vE3$_1EEbT0_T1_T2_OT3_', symObjAddr: 0x78B0, symBinAddr: 0x100008E60, symSize: 0x178 }
  - { offsetInCU: 0x7529, offset: 0x7529, size: 0x8, addend: 0x0, symName: __ZNSt3__17advanceB8ue170006INS_11__wrap_iterIPZ5test2vE5PointEEllvEEvRT_T0_, symObjAddr: 0x7F7C, symBinAddr: 0x10000952C, symSize: 0x38 }
  - { offsetInCU: 0x7594, offset: 0x7594, size: 0x8, addend: 0x0, symName: '__ZNSt3__116__is_permutationB8ue170006INS_17_ClassicAlgPolicyENS_11__wrap_iterIPZ5test2vE5PointEES5_S5_RZ5test2vE3$_2EEbT0_T1_T2_OT3_', symObjAddr: 0x80B0, symBinAddr: 0x100009660, symSize: 0x178 }
  - { offsetInCU: 0x8BD7, offset: 0x8BD7, size: 0x8, addend: 0x0, symName: '__ZNSt3__111__introsortINS_17_ClassicAlgPolicyERZ5test5vE3$_5P6PersonLb0EEEvT1_S6_T0_NS_15iterator_traitsIS6_E15difference_typeEb', symObjAddr: 0xA5FC, symBinAddr: 0x10000BBAC, symSize: 0x434 }
  - { offsetInCU: 0x8D02, offset: 0x8D02, size: 0x8, addend: 0x0, symName: '__ZNSt3__126__insertion_sort_unguardedB8ue170006INS_17_ClassicAlgPolicyERZ5test5vE3$_5P6PersonEEvT1_S6_T0_', symObjAddr: 0xAD90, symBinAddr: 0x10000C340, symSize: 0x168 }
  - { offsetInCU: 0x8DDA, offset: 0x8DDA, size: 0x8, addend: 0x0, symName: '__ZNSt3__111__sift_downB8ue170006INS_17_ClassicAlgPolicyERZ5test5vE3$_5P6PersonEEvT1_OT0_NS_15iterator_traitsIS6_E15difference_typeES6_', symObjAddr: 0xC51C, symBinAddr: 0x10000DACC, symSize: 0x260 }
  - { offsetInCU: 0x8E87, offset: 0x8E87, size: 0x8, addend: 0x0, symName: '__ZNSt3__117__floyd_sift_downB8ue170006INS_17_ClassicAlgPolicyERZ5test5vE3$_5P6PersonEET1_S6_OT0_NS_15iterator_traitsIS6_E15difference_typeE', symObjAddr: 0xC968, symBinAddr: 0x10000DF18, symSize: 0x100 }
  - { offsetInCU: 0x8F1F, offset: 0x8F1F, size: 0x8, addend: 0x0, symName: '__ZNSt3__131__partition_with_equals_on_leftB8ue170006INS_17_ClassicAlgPolicyEP6PersonRZ5test5vE3$_5EET0_S6_S6_T1_', symObjAddr: 0xB104, symBinAddr: 0x10000C6B4, symSize: 0x2A0 }
  - { offsetInCU: 0x8FDC, offset: 0x8FDC, size: 0x8, addend: 0x0, symName: '__ZNSt3__118__bitset_partitionB8ue170006INS_17_ClassicAlgPolicyEP6PersonRZ5test5vE3$_5EENS_4pairIT0_bEES7_S7_T1_', symObjAddr: 0xB3A4, symBinAddr: 0x10000C954, symSize: 0x3B0 }
  - { offsetInCU: 0x90D8, offset: 0x90D8, size: 0x8, addend: 0x0, symName: __ZNSt3__124__swap_bitmap_pos_withinB8ue170006INS_17_ClassicAlgPolicyEP6PersonEEvRT0_S5_RyS6_, symObjAddr: 0xD0FC, symBinAddr: 0x10000E6AC, symSize: 0x1E0 }
  - { offsetInCU: 0x91A5, offset: 0x91A5, size: 0x8, addend: 0x0, symName: '__ZNSt3__132__partition_with_equals_on_rightB8ue170006INS_17_ClassicAlgPolicyEP6PersonRZ5test5vE3$_5EENS_4pairIT0_bEES7_S7_T1_', symObjAddr: 0xB754, symBinAddr: 0x10000CD04, symSize: 0x298 }
  - { offsetInCU: 0x926F, offset: 0x926F, size: 0x8, addend: 0x0, symName: '__ZNSt3__127__insertion_sort_incompleteB8ue170006INS_17_ClassicAlgPolicyERZ5test5vE3$_5P6PersonEEbT1_S6_T0_', symObjAddr: 0xB9EC, symBinAddr: 0x10000CF9C, symSize: 0x374 }
  - { offsetInCU: 0xA05D, offset: 0xA05D, size: 0x8, addend: 0x0, symName: __ZNSt3__1lsB8ue170006INS_11char_traitsIcEEEERNS_13basic_ostreamIcT_EES6_PKc, symObjAddr: 0xFC, symBinAddr: 0x1000016AC, symSize: 0x48 }
  - { offsetInCU: 0xA0A3, offset: 0xA0A3, size: 0x8, addend: 0x0, symName: __ZNSt3__14endlB8ue170006IcNS_11char_traitsIcEEEERNS_13basic_ostreamIT_T0_EES7_, symObjAddr: 0x170, symBinAddr: 0x100001720, symSize: 0x58 }
  - { offsetInCU: 0xA0E3, offset: 0xA0E3, size: 0x8, addend: 0x0, symName: '__ZNSt3__18for_eachB8ue170006INS_11__wrap_iterIPiEEZ5test1vE3$_0EET0_T_S6_S5_', symObjAddr: 0x204, symBinAddr: 0x1000017B4, symSize: 0x5C }
  - { offsetInCU: 0xA13D, offset: 0xA13D, size: 0x8, addend: 0x0, symName: '__ZNSt3__114is_permutationB8ue170006INS_11__wrap_iterIPZ5test2vE5PointEES4_Z5test2vE3$_1EEbT_S6_T0_T1_', symObjAddr: 0x678, symBinAddr: 0x100001C28, symSize: 0x54 }
  - { offsetInCU: 0xA1AE, offset: 0xA1AE, size: 0x8, addend: 0x0, symName: '__ZNSt3__114is_permutationB8ue170006INS_11__wrap_iterIPZ5test2vE5PointEES4_Z5test2vE3$_2EEbT_S6_T0_T1_', symObjAddr: 0x72C, symBinAddr: 0x100001CDC, symSize: 0x54 }
  - { offsetInCU: 0xA21F, offset: 0xA21F, size: 0x8, addend: 0x0, symName: '__ZNSt3__19transformB8ue170006INS_11__wrap_iterIPiEES3_Z5test3vE3$_3EET0_T_S6_S5_T1_', symObjAddr: 0x970, symBinAddr: 0x100001F20, symSize: 0x94 }
  - { offsetInCU: 0xA291, offset: 0xA291, size: 0x8, addend: 0x0, symName: __ZNSt3__1neB8ue170006IPiEEbRKNS_11__wrap_iterIT_EES6_, symObjAddr: 0xA04, symBinAddr: 0x100001FB4, symSize: 0x34 }
  - { offsetInCU: 0xA2D3, offset: 0xA2D3, size: 0x8, addend: 0x0, symName: '__ZNSt3__19remove_ifB8ue170006INS_11__wrap_iterIPiEEZ5test4vE3$_4EET_S5_S5_T0_', symObjAddr: 0xD34, symBinAddr: 0x1000022E4, symSize: 0xFC }
  - { offsetInCU: 0xA365, offset: 0xA365, size: 0x8, addend: 0x0, symName: __ZNSt3__1lsB8ue170006IcNS_11char_traitsIcEENS_9allocatorIcEEEERNS_13basic_ostreamIT_T0_EES9_RKNS_12basic_stringIS6_S7_T1_EE, symObjAddr: 0xECC, symBinAddr: 0x10000247C, symSize: 0x4C }
  - { offsetInCU: 0xA3BD, offset: 0xA3BD, size: 0x8, addend: 0x0, symName: '__ZNSt3__14sortB8ue170006INS_11__wrap_iterIP6PersonEEZ5test5vE3$_5EEvT_S6_T0_', symObjAddr: 0x143C, symBinAddr: 0x1000029EC, symSize: 0x40 }
  - { offsetInCU: 0xA418, offset: 0xA418, size: 0x8, addend: 0x0, symName: __ZNSt3__1neB8ue170006IP6PersonEEbRKNS_11__wrap_iterIT_EES7_, symObjAddr: 0x14DC, symBinAddr: 0x100002A8C, symSize: 0x34 }
  - { offsetInCU: 0xA45A, offset: 0xA45A, size: 0x8, addend: 0x0, symName: '__ZNSt3__16all_ofB8ue170006INS_11__wrap_iterIPKiEEZ10in_betweenRKNS_6vectorIiNS_9allocatorIiEEEEiiE3$_6EEbT_SC_T0_', symObjAddr: 0x15E8, symBinAddr: 0x100002B98, symSize: 0x98 }
  - { offsetInCU: 0xA4B4, offset: 0xA4B4, size: 0x8, addend: 0x0, symName: __ZNSt3__19boolalphaB8ue170006ERNS_8ios_baseE, symObjAddr: 0x1938, symBinAddr: 0x100002EE8, symSize: 0x2C }
  - { offsetInCU: 0xA4E3, offset: 0xA4E3, size: 0x8, addend: 0x0, symName: __ZNSt3__14iotaB8ue170006INS_11__wrap_iterIPiEEiEEvT_S4_T0_, symObjAddr: 0x1998, symBinAddr: 0x100002F48, symSize: 0x70 }
  - { offsetInCU: 0xA539, offset: 0xA539, size: 0x8, addend: 0x0, symName: __ZNSt3__1eqB8ue170006IPiEEbRKNS_11__wrap_iterIT_EES6_, symObjAddr: 0x2230, symBinAddr: 0x1000037E0, symSize: 0x48 }
  - { offsetInCU: 0xA57C, offset: 0xA57C, size: 0x8, addend: 0x0, symName: __ZNSt3__1eqB8ue170006IP6PersonEEbRKNS_11__wrap_iterIT_EES7_, symObjAddr: 0x237C, symBinAddr: 0x10000392C, symSize: 0x48 }
  - { offsetInCU: 0xA5BF, offset: 0xA5BF, size: 0x8, addend: 0x0, symName: __ZNSt3__16all_ofB8ue170006INS_11__wrap_iterIPcEEZN19Password_Validator18is_validENS_12basic_stringIcNS_11char_traitsIcEENS_9allocatorIcEEEEEUlcE_EEbT_SC_T0_, symObjAddr: 0x242C, symBinAddr: 0x1000039DC, symSize: 0x98 }
  - { offsetInCU: 0xA619, offset: 0xA619, size: 0x8, addend: 0x0, symName: __ZNSt3__1neB8ue170006IPcEEbRKNS_11__wrap_iterIT_EES6_, symObjAddr: 0x2564, symBinAddr: 0x100003B14, symSize: 0x34 }
  - { offsetInCU: 0xA65C, offset: 0xA65C, size: 0x8, addend: 0x0, symName: __ZNSt3__1eqB8ue170006IPcEEbRKNS_11__wrap_iterIT_EES6_, symObjAddr: 0x2600, symBinAddr: 0x100003BB0, symSize: 0x48 }
  - { offsetInCU: 0xA6D2, offset: 0xA6D2, size: 0x8, addend: 0x0, symName: __ZNSt3__122__make_exception_guardB8ue170006INS_6vectorIcNS_9allocatorIcEEE16__destroy_vectorEEENS_28__exception_guard_exceptionsIT_EES7_, symObjAddr: 0x2AF4, symBinAddr: 0x1000040A4, symSize: 0x40 }
  - { offsetInCU: 0xA707, offset: 0xA707, size: 0x8, addend: 0x0, symName: __ZNSt3__119__allocate_at_leastB8ue170006INS_9allocatorIcEEEENS_19__allocation_resultINS_16allocator_traitsIT_E7pointerEEERS5_m, symObjAddr: 0x2EF4, symBinAddr: 0x1000044A4, symSize: 0x40 }
  - { offsetInCU: 0xA74A, offset: 0xA74A, size: 0x8, addend: 0x0, symName: __ZNSt3__13minB8ue170006ImEERKT_S3_S3_, symObjAddr: 0x3030, symBinAddr: 0x1000045E0, symSize: 0x2C }
  - { offsetInCU: 0xA977, offset: 0xA977, size: 0x8, addend: 0x0, symName: __ZNSt3__13minB8ue170006ImNS_6__lessIvvEEEERKT_S5_S5_T0_, symObjAddr: 0x30BC, symBinAddr: 0x10000466C, symSize: 0x54 }
  - { offsetInCU: 0xAA16, offset: 0xAA16, size: 0x8, addend: 0x0, symName: __ZNSt3__120__throw_length_errorB8ue170006EPKc, symObjAddr: 0x3198, symBinAddr: 0x100004748, symSize: 0x64 }
  - { offsetInCU: 0xAA3F, offset: 0xAA3F, size: 0x8, addend: 0x0, symName: __ZNSt3__117__libcpp_allocateB8ue170006Emm, symObjAddr: 0x3308, symBinAddr: 0x1000048B8, symSize: 0x60 }
  - { offsetInCU: 0xAA9A, offset: 0xAA9A, size: 0x8, addend: 0x0, symName: __ZNSt3__124__is_overaligned_for_newB8ue170006Em, symObjAddr: 0x3368, symBinAddr: 0x100004918, symSize: 0x20 }
  - { offsetInCU: 0xAAC8, offset: 0xAAC8, size: 0x8, addend: 0x0, symName: __ZNSt3__121__libcpp_operator_newB8ue170006IJmSt11align_val_tEEEPvDpT_, symObjAddr: 0x3388, symBinAddr: 0x100004938, symSize: 0x2C }
  - { offsetInCU: 0xAB15, offset: 0xAB15, size: 0x8, addend: 0x0, symName: __ZNSt3__121__libcpp_operator_newB8ue170006IJmEEEPvDpT_, symObjAddr: 0x33B4, symBinAddr: 0x100004964, symSize: 0x24 }
  - { offsetInCU: 0xAB4F, offset: 0xAB4F, size: 0x8, addend: 0x0, symName: __ZNSt3__112__to_addressB8ue170006IcEEPT_S2_, symObjAddr: 0x34C8, symBinAddr: 0x100004A78, symSize: 0x14 }
  - { offsetInCU: 0xAB84, offset: 0xAB84, size: 0x8, addend: 0x0, symName: __ZNSt3__130__uninitialized_allocator_copyB8ue170006INS_9allocatorIcEEPKcS4_PcEET2_RT_T0_T1_S6_, symObjAddr: 0x3578, symBinAddr: 0x100004B28, symSize: 0x80 }
  - { offsetInCU: 0xAC22, offset: 0xAC22, size: 0x8, addend: 0x0, symName: __ZNSt3__114__unwrap_rangeB8ue170006IPKcS2_EENS_4pairIT0_S4_EET_S6_, symObjAddr: 0x3668, symBinAddr: 0x100004C18, symSize: 0x60 }
  - { offsetInCU: 0xAC6D, offset: 0xAC6D, size: 0x8, addend: 0x0, symName: __ZNSt3__135__uninitialized_allocator_copy_implB8ue170006INS_9allocatorIcEEKcccLPv0EEEPT2_RT_PT0_SA_S6_, symObjAddr: 0x36C8, symBinAddr: 0x100004C78, symSize: 0x38 }
  - { offsetInCU: 0xACF0, offset: 0xACF0, size: 0x8, addend: 0x0, symName: __ZNSt3__113__unwrap_iterB8ue170006IPcNS_18__unwrap_iter_implIS1_Lb1EEELi0EEEDTclsrT0_8__unwrapclsr3stdE7declvalIT_EEEES5_, symObjAddr: 0x3700, symBinAddr: 0x100004CB0, symSize: 0x24 }
  - { offsetInCU: 0xAD34, offset: 0xAD34, size: 0x8, addend: 0x0, symName: __ZNSt3__113__rewrap_iterB8ue170006IPcS1_NS_18__unwrap_iter_implIS1_Lb1EEEEET_S4_T0_, symObjAddr: 0x3724, symBinAddr: 0x100004CD4, symSize: 0x3C }
  - { offsetInCU: 0xAD88, offset: 0xAD88, size: 0x8, addend: 0x0, symName: __ZNSt3__19make_pairB8ue170006IPKcS2_EENS_4pairINS_18__unwrap_ref_decayIT_E4typeENS4_IT0_E4typeEEEOS5_OS8_, symObjAddr: 0x3760, symBinAddr: 0x100004D10, symSize: 0x38 }
  - { offsetInCU: 0xADD8, offset: 0xADD8, size: 0x8, addend: 0x0, symName: __ZNSt3__113__unwrap_iterB8ue170006IPKcNS_18__unwrap_iter_implIS2_Lb1EEELi0EEEDTclsrT0_8__unwrapclsr3stdE7declvalIT_EEEES6_, symObjAddr: 0x3798, symBinAddr: 0x100004D48, symSize: 0x24 }
  - { offsetInCU: 0xAF43, offset: 0xAF43, size: 0x8, addend: 0x0, symName: __ZNSt3__112__to_addressB8ue170006IKcEEPT_S3_, symObjAddr: 0x3850, symBinAddr: 0x100004E00, symSize: 0x14 }
  - { offsetInCU: 0xAF79, offset: 0xAF79, size: 0x8, addend: 0x0, symName: __ZNSt3__14copyB8ue170006IPKcPcEET0_T_S5_S4_, symObjAddr: 0x3864, symBinAddr: 0x100004E14, symSize: 0x40 }
  - { offsetInCU: 0xAFD3, offset: 0xAFD3, size: 0x8, addend: 0x0, symName: __ZNSt3__16__copyB8ue170006INS_17_ClassicAlgPolicyEPKcS3_PcEENS_4pairIT0_T2_EES6_T1_S7_, symObjAddr: 0x38A4, symBinAddr: 0x100004E54, symSize: 0x44 }
  - { offsetInCU: 0xB03F, offset: 0xB03F, size: 0x8, addend: 0x0, symName: __ZNSt3__123__dispatch_copy_or_moveB8ue170006INS_17_ClassicAlgPolicyENS_11__copy_loopIS1_EENS_14__copy_trivialEPKcS6_PcEENS_4pairIT2_T4_EES9_T3_SA_, symObjAddr: 0x38E8, symBinAddr: 0x100004E98, symSize: 0x44 }
  - { offsetInCU: 0xB0BD, offset: 0xB0BD, size: 0x8, addend: 0x0, symName: __ZNSt3__121__unwrap_and_dispatchB8ue170006INS_10__overloadINS_11__copy_loopINS_17_ClassicAlgPolicyEEENS_14__copy_trivialEEEPKcS8_PcLi0EEENS_4pairIT0_T2_EESB_T1_SC_, symObjAddr: 0x392C, symBinAddr: 0x100004EDC, symSize: 0xB4 }
  - { offsetInCU: 0xB30B, offset: 0xB30B, size: 0x8, addend: 0x0, symName: __ZNSt3__19make_pairB8ue170006IPKcPcEENS_4pairINS_18__unwrap_ref_decayIT_E4typeENS5_IT0_E4typeEEEOS6_OS9_, symObjAddr: 0x3A28, symBinAddr: 0x100004FD8, symSize: 0x38 }
  - { offsetInCU: 0xB35B, offset: 0xB35B, size: 0x8, addend: 0x0, symName: __ZNSt3__114__rewrap_rangeB8ue170006IPKcS2_EET_S3_T0_, symObjAddr: 0x3A60, symBinAddr: 0x100005010, symSize: 0x2C }
  - { offsetInCU: 0xB3A7, offset: 0xB3A7, size: 0x8, addend: 0x0, symName: __ZNSt3__119__copy_trivial_implB8ue170006IKccEENS_4pairIPT_PT0_EES4_S4_S6_, symObjAddr: 0x3A8C, symBinAddr: 0x10000503C, symSize: 0x78 }
  - { offsetInCU: 0xB40F, offset: 0xB40F, size: 0x8, addend: 0x0, symName: __ZNSt3__119__constexpr_memmoveB8ue170006IcKcLi0EEEPT_S3_PT0_NS_15__element_countE, symObjAddr: 0x3B04, symBinAddr: 0x1000050B4, symSize: 0x64 }
  - { offsetInCU: 0xB47C, offset: 0xB47C, size: 0x8, addend: 0x0, symName: __ZNSt3__19make_pairB8ue170006IRPKcPcEENS_4pairINS_18__unwrap_ref_decayIT_E4typeENS6_IT0_E4typeEEEOS7_OSA_, symObjAddr: 0x3B68, symBinAddr: 0x100005118, symSize: 0x38 }
  - { offsetInCU: 0xB4CC, offset: 0xB4CC, size: 0x8, addend: 0x0, symName: __ZNSt3__113__rewrap_iterB8ue170006IPKcS2_NS_18__unwrap_iter_implIS2_Lb1EEEEET_S5_T0_, symObjAddr: 0x3C80, symBinAddr: 0x100005230, symSize: 0x3C }
  - { offsetInCU: 0xB573, offset: 0xB573, size: 0x8, addend: 0x0, symName: __ZNSt3__119__libcpp_deallocateB8ue170006EPvmm, symObjAddr: 0x40B0, symBinAddr: 0x100005660, symSize: 0x60 }
  - { offsetInCU: 0xB5D8, offset: 0xB5D8, size: 0x8, addend: 0x0, symName: __ZNSt3__127__do_deallocate_handle_sizeB8ue170006IJSt11align_val_tEEEvPvmDpT_, symObjAddr: 0x4110, symBinAddr: 0x1000056C0, symSize: 0x30 }
  - { offsetInCU: 0xB62B, offset: 0xB62B, size: 0x8, addend: 0x0, symName: __ZNSt3__127__do_deallocate_handle_sizeB8ue170006IJEEEvPvmDpT_, symObjAddr: 0x4140, symBinAddr: 0x1000056F0, symSize: 0x28 }
  - { offsetInCU: 0xB669, offset: 0xB669, size: 0x8, addend: 0x0, symName: __ZNSt3__124__libcpp_operator_deleteB8ue170006IJPvSt11align_val_tEEEvDpT_, symObjAddr: 0x4168, symBinAddr: 0x100005718, symSize: 0x2C }
  - { offsetInCU: 0xB6B2, offset: 0xB6B2, size: 0x8, addend: 0x0, symName: __ZNSt3__124__libcpp_operator_deleteB8ue170006IJPvEEEvDpT_, symObjAddr: 0x4194, symBinAddr: 0x100005744, symSize: 0x24 }
  - { offsetInCU: 0xB6E8, offset: 0xB6E8, size: 0x8, addend: 0x0, symName: __ZNSt3__16all_ofB8ue170006INS_11__wrap_iterIPcEEZN19Password_Validator28is_validENS_12basic_stringIcNS_11char_traitsIcEENS_9allocatorIcEEEEEUlcE_EEbT_SC_T0_, symObjAddr: 0x41B8, symBinAddr: 0x100005768, symSize: 0x98 }
  - { offsetInCU: 0xB742, offset: 0xB742, size: 0x8, addend: 0x0, symName: __ZNSt3__17none_ofB8ue170006INS_11__wrap_iterIPcEEZZN19Password_Validator28is_validENS_12basic_stringIcNS_11char_traitsIcEENS_9allocatorIcEEEEENKUlcE_clEcEUlcE_EEbT_SD_T0_, symObjAddr: 0x42B4, symBinAddr: 0x100005864, symSize: 0x9C }
  - { offsetInCU: 0xB79B, offset: 0xB79B, size: 0x8, addend: 0x0, symName: __ZNSt3__116__pad_and_outputB8ue170006IcNS_11char_traitsIcEEEENS_19ostreambuf_iteratorIT_T0_EES6_PKS4_S8_S8_RNS_8ios_baseES4_, symObjAddr: 0x46E0, symBinAddr: 0x100005C90, symSize: 0x240 }
  - { offsetInCU: 0xB86B, offset: 0xB86B, size: 0x8, addend: 0x0, symName: __ZNSt3__19use_facetB8ue170006INS_5ctypeIcEEEERKT_RKNS_6localeE, symObjAddr: 0x4D20, symBinAddr: 0x1000062D0, symSize: 0x2C }
  - { offsetInCU: 0xBD38, offset: 0xBD38, size: 0x8, addend: 0x0, symName: __ZNSt3__118__constexpr_strlenB8ue170006EPKc, symObjAddr: 0x4DB8, symBinAddr: 0x100006368, symSize: 0x24 }
  - { offsetInCU: 0xBD64, offset: 0xBD64, size: 0x8, addend: 0x0, symName: __ZNSt3__122__make_exception_guardB8ue170006INS_6vectorIiNS_9allocatorIiEEE16__destroy_vectorEEENS_28__exception_guard_exceptionsIT_EES7_, symObjAddr: 0x4F38, symBinAddr: 0x1000064E8, symSize: 0x40 }
  - { offsetInCU: 0xBD99, offset: 0xBD99, size: 0x8, addend: 0x0, symName: __ZNSt3__119__allocate_at_leastB8ue170006INS_9allocatorIiEEEENS_19__allocation_resultINS_16allocator_traitsIT_E7pointerEEERS5_m, symObjAddr: 0x5338, symBinAddr: 0x1000068E8, symSize: 0x40 }
  - { offsetInCU: 0xBDDC, offset: 0xBDDC, size: 0x8, addend: 0x0, symName: __ZNSt3__112__to_addressB8ue170006IiEEPT_S2_, symObjAddr: 0x565C, symBinAddr: 0x100006C0C, symSize: 0x14 }
  - { offsetInCU: 0xBE11, offset: 0xBE11, size: 0x8, addend: 0x0, symName: __ZNSt3__130__uninitialized_allocator_copyB8ue170006INS_9allocatorIiEEPKiS4_PiEET2_RT_T0_T1_S6_, symObjAddr: 0x570C, symBinAddr: 0x100006CBC, symSize: 0x80 }
  - { offsetInCU: 0xBEAF, offset: 0xBEAF, size: 0x8, addend: 0x0, symName: __ZNSt3__114__unwrap_rangeB8ue170006IPKiS2_EENS_4pairIT0_S4_EET_S6_, symObjAddr: 0x57FC, symBinAddr: 0x100006DAC, symSize: 0x60 }
  - { offsetInCU: 0xBEFA, offset: 0xBEFA, size: 0x8, addend: 0x0, symName: __ZNSt3__135__uninitialized_allocator_copy_implB8ue170006INS_9allocatorIiEEKiiiLPv0EEEPT2_RT_PT0_SA_S6_, symObjAddr: 0x585C, symBinAddr: 0x100006E0C, symSize: 0x38 }
  - { offsetInCU: 0xBF7D, offset: 0xBF7D, size: 0x8, addend: 0x0, symName: __ZNSt3__113__unwrap_iterB8ue170006IPiNS_18__unwrap_iter_implIS1_Lb1EEELi0EEEDTclsrT0_8__unwrapclsr3stdE7declvalIT_EEEES5_, symObjAddr: 0x5894, symBinAddr: 0x100006E44, symSize: 0x24 }
  - { offsetInCU: 0xBFC1, offset: 0xBFC1, size: 0x8, addend: 0x0, symName: __ZNSt3__113__rewrap_iterB8ue170006IPiS1_NS_18__unwrap_iter_implIS1_Lb1EEEEET_S4_T0_, symObjAddr: 0x58B8, symBinAddr: 0x100006E68, symSize: 0x3C }
  - { offsetInCU: 0xC015, offset: 0xC015, size: 0x8, addend: 0x0, symName: __ZNSt3__19make_pairB8ue170006IPKiS2_EENS_4pairINS_18__unwrap_ref_decayIT_E4typeENS4_IT0_E4typeEEEOS5_OS8_, symObjAddr: 0x58F4, symBinAddr: 0x100006EA4, symSize: 0x38 }
  - { offsetInCU: 0xC065, offset: 0xC065, size: 0x8, addend: 0x0, symName: __ZNSt3__113__unwrap_iterB8ue170006IPKiNS_18__unwrap_iter_implIS2_Lb1EEELi0EEEDTclsrT0_8__unwrapclsr3stdE7declvalIT_EEEES6_, symObjAddr: 0x592C, symBinAddr: 0x100006EDC, symSize: 0x24 }
  - { offsetInCU: 0xC1D0, offset: 0xC1D0, size: 0x8, addend: 0x0, symName: __ZNSt3__112__to_addressB8ue170006IKiEEPT_S3_, symObjAddr: 0x59E4, symBinAddr: 0x100006F94, symSize: 0x14 }
  - { offsetInCU: 0xC206, offset: 0xC206, size: 0x8, addend: 0x0, symName: __ZNSt3__14copyB8ue170006IPKiPiEET0_T_S5_S4_, symObjAddr: 0x59F8, symBinAddr: 0x100006FA8, symSize: 0x40 }
  - { offsetInCU: 0xC260, offset: 0xC260, size: 0x8, addend: 0x0, symName: __ZNSt3__16__copyB8ue170006INS_17_ClassicAlgPolicyEPKiS3_PiEENS_4pairIT0_T2_EES6_T1_S7_, symObjAddr: 0x5A38, symBinAddr: 0x100006FE8, symSize: 0x44 }
  - { offsetInCU: 0xC2CC, offset: 0xC2CC, size: 0x8, addend: 0x0, symName: __ZNSt3__123__dispatch_copy_or_moveB8ue170006INS_17_ClassicAlgPolicyENS_11__copy_loopIS1_EENS_14__copy_trivialEPKiS6_PiEENS_4pairIT2_T4_EES9_T3_SA_, symObjAddr: 0x5A7C, symBinAddr: 0x10000702C, symSize: 0x44 }
  - { offsetInCU: 0xC34A, offset: 0xC34A, size: 0x8, addend: 0x0, symName: __ZNSt3__121__unwrap_and_dispatchB8ue170006INS_10__overloadINS_11__copy_loopINS_17_ClassicAlgPolicyEEENS_14__copy_trivialEEEPKiS8_PiLi0EEENS_4pairIT0_T2_EESB_T1_SC_, symObjAddr: 0x5AC0, symBinAddr: 0x100007070, symSize: 0xB4 }
  - { offsetInCU: 0xC4DA, offset: 0xC4DA, size: 0x8, addend: 0x0, symName: __ZNSt3__19make_pairB8ue170006IPKiPiEENS_4pairINS_18__unwrap_ref_decayIT_E4typeENS5_IT0_E4typeEEEOS6_OS9_, symObjAddr: 0x5BBC, symBinAddr: 0x10000716C, symSize: 0x38 }
  - { offsetInCU: 0xC52A, offset: 0xC52A, size: 0x8, addend: 0x0, symName: __ZNSt3__114__rewrap_rangeB8ue170006IPKiS2_EET_S3_T0_, symObjAddr: 0x5BF4, symBinAddr: 0x1000071A4, symSize: 0x2C }
  - { offsetInCU: 0xC576, offset: 0xC576, size: 0x8, addend: 0x0, symName: __ZNSt3__119__copy_trivial_implB8ue170006IKiiEENS_4pairIPT_PT0_EES4_S4_S6_, symObjAddr: 0x5C20, symBinAddr: 0x1000071D0, symSize: 0x80 }
  - { offsetInCU: 0xC5DE, offset: 0xC5DE, size: 0x8, addend: 0x0, symName: __ZNSt3__119__constexpr_memmoveB8ue170006IiKiLi0EEEPT_S3_PT0_NS_15__element_countE, symObjAddr: 0x5CA0, symBinAddr: 0x100007250, symSize: 0x64 }
  - { offsetInCU: 0xC64B, offset: 0xC64B, size: 0x8, addend: 0x0, symName: __ZNSt3__19make_pairB8ue170006IRPKiPiEENS_4pairINS_18__unwrap_ref_decayIT_E4typeENS6_IT0_E4typeEEEOS7_OSA_, symObjAddr: 0x5D04, symBinAddr: 0x1000072B4, symSize: 0x38 }
  - { offsetInCU: 0xC69B, offset: 0xC69B, size: 0x8, addend: 0x0, symName: __ZNSt3__113__rewrap_iterB8ue170006IPKiS2_NS_18__unwrap_iter_implIS2_Lb1EEEEET_S5_T0_, symObjAddr: 0x5E1C, symBinAddr: 0x1000073CC, symSize: 0x3C }
  - { offsetInCU: 0xC742, offset: 0xC742, size: 0x8, addend: 0x0, symName: __ZNSt3__122__make_exception_guardB8ue170006INS_6vectorIZ5test2vE5PointNS_9allocatorIS2_EEE16__destroy_vectorEEENS_28__exception_guard_exceptionsIT_EES8_, symObjAddr: 0x64C0, symBinAddr: 0x100007A70, symSize: 0x40 }
  - { offsetInCU: 0xC777, offset: 0xC777, size: 0x8, addend: 0x0, symName: __ZNSt3__119__allocate_at_leastB8ue170006INS_9allocatorIZ5test2vE5PointEEEENS_19__allocation_resultINS_16allocator_traitsIT_E7pointerEEERS6_m, symObjAddr: 0x68C0, symBinAddr: 0x100007E70, symSize: 0x40 }
  - { offsetInCU: 0xC7BB, offset: 0xC7BB, size: 0x8, addend: 0x0, symName: __ZNSt3__112__to_addressB8ue170006IZ5test2vE5PointEEPT_S3_, symObjAddr: 0x6BE4, symBinAddr: 0x100008194, symSize: 0x14 }
  - { offsetInCU: 0xC7F0, offset: 0xC7F0, size: 0x8, addend: 0x0, symName: __ZNSt3__130__uninitialized_allocator_copyB8ue170006INS_9allocatorIZ5test2vE5PointEEPKS2_S5_PS2_EET2_RT_T0_T1_S7_, symObjAddr: 0x6C94, symBinAddr: 0x100008244, symSize: 0x80 }
  - { offsetInCU: 0xC88D, offset: 0xC88D, size: 0x8, addend: 0x0, symName: __ZNSt3__114__unwrap_rangeB8ue170006IPKZ5test2vE5PointS3_EENS_4pairIT0_S5_EET_S7_, symObjAddr: 0x6D84, symBinAddr: 0x100008334, symSize: 0x60 }
  - { offsetInCU: 0xC8D9, offset: 0xC8D9, size: 0x8, addend: 0x0, symName: __ZNSt3__135__uninitialized_allocator_copy_implB8ue170006INS_9allocatorIZ5test2vE5PointEEKS2_S2_S2_LPv0EEEPT2_RT_PT0_SB_S7_, symObjAddr: 0x6DE4, symBinAddr: 0x100008394, symSize: 0x38 }
  - { offsetInCU: 0xC95B, offset: 0xC95B, size: 0x8, addend: 0x0, symName: __ZNSt3__113__unwrap_iterB8ue170006IPZ5test2vE5PointNS_18__unwrap_iter_implIS2_Lb1EEELi0EEEDTclsrT0_8__unwrapclsr3stdE7declvalIT_EEEES6_, symObjAddr: 0x6E1C, symBinAddr: 0x1000083CC, symSize: 0x24 }
  - { offsetInCU: 0xC99F, offset: 0xC99F, size: 0x8, addend: 0x0, symName: __ZNSt3__113__rewrap_iterB8ue170006IPZ5test2vE5PointS2_NS_18__unwrap_iter_implIS2_Lb1EEEEET_S5_T0_, symObjAddr: 0x6E40, symBinAddr: 0x1000083F0, symSize: 0x3C }
  - { offsetInCU: 0xC9F4, offset: 0xC9F4, size: 0x8, addend: 0x0, symName: __ZNSt3__19make_pairB8ue170006IPKZ5test2vE5PointS3_EENS_4pairINS_18__unwrap_ref_decayIT_E4typeENS5_IT0_E4typeEEEOS6_OS9_, symObjAddr: 0x6E7C, symBinAddr: 0x10000842C, symSize: 0x38 }
  - { offsetInCU: 0xCA43, offset: 0xCA43, size: 0x8, addend: 0x0, symName: __ZNSt3__113__unwrap_iterB8ue170006IPKZ5test2vE5PointNS_18__unwrap_iter_implIS3_Lb1EEELi0EEEDTclsrT0_8__unwrapclsr3stdE7declvalIT_EEEES7_, symObjAddr: 0x6EB4, symBinAddr: 0x100008464, symSize: 0x24 }
  - { offsetInCU: 0xCBAF, offset: 0xCBAF, size: 0x8, addend: 0x0, symName: __ZNSt3__112__to_addressB8ue170006IKZ5test2vE5PointEEPT_S4_, symObjAddr: 0x6F6C, symBinAddr: 0x10000851C, symSize: 0x14 }
  - { offsetInCU: 0xCBE4, offset: 0xCBE4, size: 0x8, addend: 0x0, symName: __ZNSt3__14copyB8ue170006IPKZ5test2vE5PointPS1_EET0_T_S6_S5_, symObjAddr: 0x6F80, symBinAddr: 0x100008530, symSize: 0x40 }
  - { offsetInCU: 0xCC3E, offset: 0xCC3E, size: 0x8, addend: 0x0, symName: __ZNSt3__16__copyB8ue170006INS_17_ClassicAlgPolicyEPKZ5test2vE5PointS4_PS2_EENS_4pairIT0_T2_EES7_T1_S8_, symObjAddr: 0x6FC0, symBinAddr: 0x100008570, symSize: 0x44 }
  - { offsetInCU: 0xCCAA, offset: 0xCCAA, size: 0x8, addend: 0x0, symName: __ZNSt3__123__dispatch_copy_or_moveB8ue170006INS_17_ClassicAlgPolicyENS_11__copy_loopIS1_EENS_14__copy_trivialEPKZ5test2vE5PointS7_PS5_EENS_4pairIT2_T4_EESA_T3_SB_, symObjAddr: 0x7004, symBinAddr: 0x1000085B4, symSize: 0x44 }
  - { offsetInCU: 0xCD28, offset: 0xCD28, size: 0x8, addend: 0x0, symName: __ZNSt3__121__unwrap_and_dispatchB8ue170006INS_10__overloadINS_11__copy_loopINS_17_ClassicAlgPolicyEEENS_14__copy_trivialEEEPKZ5test2vE5PointS9_PS7_Li0EEENS_4pairIT0_T2_EESC_T1_SD_, symObjAddr: 0x7048, symBinAddr: 0x1000085F8, symSize: 0xB4 }
  - { offsetInCU: 0xCEB9, offset: 0xCEB9, size: 0x8, addend: 0x0, symName: __ZNSt3__19make_pairB8ue170006IPKZ5test2vE5PointPS1_EENS_4pairINS_18__unwrap_ref_decayIT_E4typeENS6_IT0_E4typeEEEOS7_OSA_, symObjAddr: 0x7144, symBinAddr: 0x1000086F4, symSize: 0x38 }
  - { offsetInCU: 0xCF08, offset: 0xCF08, size: 0x8, addend: 0x0, symName: __ZNSt3__114__rewrap_rangeB8ue170006IPKZ5test2vE5PointS3_EET_S4_T0_, symObjAddr: 0x717C, symBinAddr: 0x10000872C, symSize: 0x2C }
  - { offsetInCU: 0xCF54, offset: 0xCF54, size: 0x8, addend: 0x0, symName: __ZNSt3__119__copy_trivial_implB8ue170006IKZ5test2vE5PointS1_EENS_4pairIPT_PT0_EES5_S5_S7_, symObjAddr: 0x71A8, symBinAddr: 0x100008758, symSize: 0x80 }
  - { offsetInCU: 0xCFBC, offset: 0xCFBC, size: 0x8, addend: 0x0, symName: __ZNSt3__119__constexpr_memmoveB8ue170006IZ5test2vE5PointKS1_Li0EEEPT_S4_PT0_NS_15__element_countE, symObjAddr: 0x7228, symBinAddr: 0x1000087D8, symSize: 0x64 }
  - { offsetInCU: 0xD02A, offset: 0xD02A, size: 0x8, addend: 0x0, symName: __ZNSt3__19make_pairB8ue170006IRPKZ5test2vE5PointPS1_EENS_4pairINS_18__unwrap_ref_decayIT_E4typeENS7_IT0_E4typeEEEOS8_OSB_, symObjAddr: 0x728C, symBinAddr: 0x10000883C, symSize: 0x38 }
  - { offsetInCU: 0xD079, offset: 0xD079, size: 0x8, addend: 0x0, symName: __ZNSt3__113__rewrap_iterB8ue170006IPKZ5test2vE5PointS3_NS_18__unwrap_iter_implIS3_Lb1EEEEET_S6_T0_, symObjAddr: 0x73A4, symBinAddr: 0x100008954, symSize: 0x3C }
  - { offsetInCU: 0xD121, offset: 0xD121, size: 0x8, addend: 0x0, symName: __ZNSt3__1neB8ue170006IPZ5test2vE5PointEEbRKNS_11__wrap_iterIT_EES7_, symObjAddr: 0x7A28, symBinAddr: 0x100008FD8, symSize: 0x34 }
  - { offsetInCU: 0xD164, offset: 0xD164, size: 0x8, addend: 0x0, symName: __ZNSt3__1eqB8ue170006IPZ5test2vE5PointEEbRKNS_11__wrap_iterIT_EES7_, symObjAddr: 0x7AEC, symBinAddr: 0x10000909C, symSize: 0x48 }
  - { offsetInCU: 0xD2D7, offset: 0xD2D7, size: 0x8, addend: 0x0, symName: '__ZNSt3__121__is_permutation_implB8ue170006INS_17_ClassicAlgPolicyENS_11__wrap_iterIPZ5test2vE5PointEES5_S5_S5_NS_10__identityES6_RZ5test2vE3$_1EEbT0_T1_T2_T3_OT6_OT4_OT5_', symObjAddr: 0x7BB0, symBinAddr: 0x100009160, symSize: 0x2C4 }
  - { offsetInCU: 0xD44A, offset: 0xD44A, size: 0x8, addend: 0x0, symName: __ZNSt3__18distanceB8ue170006INS_11__wrap_iterIPZ5test2vE5PointEEEENS_15iterator_traitsIT_E15difference_typeES6_S6_, symObjAddr: 0x7E8C, symBinAddr: 0x10000943C, symSize: 0x3C }
  - { offsetInCU: 0xD48D, offset: 0xD48D, size: 0x8, addend: 0x0, symName: __ZNSt3__110__distanceB8ue170006INS_11__wrap_iterIPZ5test2vE5PointEEEENS_15iterator_traitsIT_E15difference_typeES6_S6_NS_26random_access_iterator_tagE, symObjAddr: 0x7EC8, symBinAddr: 0x100009478, symSize: 0x30 }
  - { offsetInCU: 0xD4DB, offset: 0xD4DB, size: 0x8, addend: 0x0, symName: __ZNSt3__1miB8ue170006IPZ5test2vE5PointS2_EEDTmicldtfp_4baseEcldtfp0_4baseEERKNS_11__wrap_iterIT_EERKNS4_IT0_EE, symObjAddr: 0x7EF8, symBinAddr: 0x1000094A8, symSize: 0x48 }
  - { offsetInCU: 0xD527, offset: 0xD527, size: 0x8, addend: 0x0, symName: __ZNSt3__14nextB8ue170006INS_11__wrap_iterIPZ5test2vE5PointEEEENS_9enable_ifIXsr29__has_input_iterator_categoryIT_EE5valueES6_E4typeES6_NS_15iterator_traitsIS6_E15difference_typeE, symObjAddr: 0x7F40, symBinAddr: 0x1000094F0, symSize: 0x3C }
  - { offsetInCU: 0xD56B, offset: 0xD56B, size: 0x8, addend: 0x0, symName: __ZNSt3__121__convert_to_integralB8ue170006El, symObjAddr: 0x7FB4, symBinAddr: 0x100009564, symSize: 0x14 }
  - { offsetInCU: 0xD597, offset: 0xD597, size: 0x8, addend: 0x0, symName: __ZNSt3__19__advanceB8ue170006INS_11__wrap_iterIPZ5test2vE5PointEEEEvRT_NS_15iterator_traitsIS5_E15difference_typeENS_26random_access_iterator_tagE, symObjAddr: 0x7FC8, symBinAddr: 0x100009578, symSize: 0x2C }
  - { offsetInCU: 0xD5E1, offset: 0xD5E1, size: 0x8, addend: 0x0, symName: '__ZNSt3__18__invokeB8ue170006IRZ5test2vE3$_1JRZ5test2vE5PointS4_EEEDTclclsr3stdE7declvalIT_EEspclsr3stdE7declvalIT0_EEEEOS5_DpOS6_', symObjAddr: 0x801C, symBinAddr: 0x1000095CC, symSize: 0x50 }
  - { offsetInCU: 0xD646, offset: 0xD646, size: 0x8, addend: 0x0, symName: __ZNSt3__18__invokeB8ue170006IRNS_10__identityEJRZ5test2vE5PointEEEDTclclsr3stdE7declvalIT_EEspclsr3stdE7declvalIT0_EEEEOS5_DpOS6_, symObjAddr: 0x806C, symBinAddr: 0x10000961C, symSize: 0x2C }
  - { offsetInCU: 0xD6C4, offset: 0xD6C4, size: 0x8, addend: 0x0, symName: '__ZNSt3__121__is_permutation_implB8ue170006INS_17_ClassicAlgPolicyENS_11__wrap_iterIPZ5test2vE5PointEES5_S5_S5_NS_10__identityES6_RZ5test2vE3$_2EEbT0_T1_T2_T3_OT6_OT4_OT5_', symObjAddr: 0x8280, symBinAddr: 0x100009830, symSize: 0x2C4 }
  - { offsetInCU: 0xD837, offset: 0xD837, size: 0x8, addend: 0x0, symName: '__ZNSt3__18__invokeB8ue170006IRZ5test2vE3$_2JRZ5test2vE5PointS4_EEEDTclclsr3stdE7declvalIT_EEspclsr3stdE7declvalIT0_EEEEOS5_DpOS6_', symObjAddr: 0x8544, symBinAddr: 0x100009AF4, symSize: 0x50 }
  - { offsetInCU: 0xD89C, offset: 0xD89C, size: 0x8, addend: 0x0, symName: '__ZNSt3__17find_ifB8ue170006INS_11__wrap_iterIPiEERZ5test4vE3$_4EET_S6_S6_T0_', symObjAddr: 0x85BC, symBinAddr: 0x100009B6C, symSize: 0x84 }
  - { offsetInCU: 0xD8F7, offset: 0xD8F7, size: 0x8, addend: 0x0, symName: __ZNSt3__1miB8ue170006IPKiPiEEDTmicldtfp_4baseEcldtfp0_4baseEERKNS_11__wrap_iterIT_EERKNS5_IT0_EE, symObjAddr: 0x8674, symBinAddr: 0x100009C24, symSize: 0x48 }
  - { offsetInCU: 0xD943, offset: 0xD943, size: 0x8, addend: 0x0, symName: __ZNSt3__1neB8ue170006IPKiEEbRKNS_11__wrap_iterIT_EES7_, symObjAddr: 0x86BC, symBinAddr: 0x100009C6C, symSize: 0x34 }
  - { offsetInCU: 0xD986, offset: 0xD986, size: 0x8, addend: 0x0, symName: __ZNSt3__14moveB8ue170006IPiS1_EET0_T_S3_S2_, symObjAddr: 0x873C, symBinAddr: 0x100009CEC, symSize: 0x40 }
  - { offsetInCU: 0xD9E0, offset: 0xD9E0, size: 0x8, addend: 0x0, symName: __ZNSt3__1miB8ue170006IPKiS2_EEDTmicldtfp_4baseEcldtfp0_4baseEERKNS_11__wrap_iterIT_EERKNS4_IT0_EE, symObjAddr: 0x877C, symBinAddr: 0x100009D2C, symSize: 0x48 }
  - { offsetInCU: 0xDA2C, offset: 0xDA2C, size: 0x8, addend: 0x0, symName: __ZNSt3__1eqB8ue170006IPKiEEbRKNS_11__wrap_iterIT_EES7_, symObjAddr: 0x87DC, symBinAddr: 0x100009D8C, symSize: 0x48 }
  - { offsetInCU: 0xDA6F, offset: 0xDA6F, size: 0x8, addend: 0x0, symName: __ZNSt3__16__moveB8ue170006INS_17_ClassicAlgPolicyEPiS2_S2_EENS_4pairIT0_T2_EES4_T1_S5_, symObjAddr: 0x88D8, symBinAddr: 0x100009E88, symSize: 0x44 }
  - { offsetInCU: 0xDADB, offset: 0xDADB, size: 0x8, addend: 0x0, symName: __ZNSt3__123__dispatch_copy_or_moveB8ue170006INS_17_ClassicAlgPolicyENS_11__move_loopIS1_EENS_14__move_trivialEPiS5_S5_EENS_4pairIT2_T4_EES7_T3_S8_, symObjAddr: 0x891C, symBinAddr: 0x100009ECC, symSize: 0x44 }
  - { offsetInCU: 0xDB59, offset: 0xDB59, size: 0x8, addend: 0x0, symName: __ZNSt3__121__unwrap_and_dispatchB8ue170006INS_10__overloadINS_11__move_loopINS_17_ClassicAlgPolicyEEENS_14__move_trivialEEEPiS7_S7_Li0EEENS_4pairIT0_T2_EES9_T1_SA_, symObjAddr: 0x8960, symBinAddr: 0x100009F10, symSize: 0xB4 }
  - { offsetInCU: 0xDBE7, offset: 0xDBE7, size: 0x8, addend: 0x0, symName: __ZNSt3__114__unwrap_rangeB8ue170006IPiS1_EENS_4pairIT0_S3_EET_S5_, symObjAddr: 0x8A14, symBinAddr: 0x100009FC4, symSize: 0x60 }
  - { offsetInCU: 0xDD7B, offset: 0xDD7B, size: 0x8, addend: 0x0, symName: __ZNSt3__19make_pairB8ue170006IPiS1_EENS_4pairINS_18__unwrap_ref_decayIT_E4typeENS3_IT0_E4typeEEEOS4_OS7_, symObjAddr: 0x8ABC, symBinAddr: 0x10000A06C, symSize: 0x38 }
  - { offsetInCU: 0xDDCB, offset: 0xDDCB, size: 0x8, addend: 0x0, symName: __ZNSt3__114__rewrap_rangeB8ue170006IPiS1_EET_S2_T0_, symObjAddr: 0x8AF4, symBinAddr: 0x10000A0A4, symSize: 0x2C }
  - { offsetInCU: 0xDE17, offset: 0xDE17, size: 0x8, addend: 0x0, symName: __ZNSt3__119__copy_trivial_implB8ue170006IiiEENS_4pairIPT_PT0_EES3_S3_S5_, symObjAddr: 0x8B20, symBinAddr: 0x10000A0D0, symSize: 0x80 }
  - { offsetInCU: 0xDE7F, offset: 0xDE7F, size: 0x8, addend: 0x0, symName: __ZNSt3__119__constexpr_memmoveB8ue170006IiiLi0EEEPT_S2_PT0_NS_15__element_countE, symObjAddr: 0x8BA0, symBinAddr: 0x10000A150, symSize: 0x64 }
  - { offsetInCU: 0xDEEC, offset: 0xDEEC, size: 0x8, addend: 0x0, symName: __ZNSt3__19make_pairB8ue170006IRPiS1_EENS_4pairINS_18__unwrap_ref_decayIT_E4typeENS4_IT0_E4typeEEEOS5_OS8_, symObjAddr: 0x8C04, symBinAddr: 0x10000A1B4, symSize: 0x38 }
  - { offsetInCU: 0xDF6F, offset: 0xDF6F, size: 0x8, addend: 0x0, symName: __ZNSt3__122__make_exception_guardB8ue170006INS_6vectorI6PersonNS_9allocatorIS2_EEE16__destroy_vectorEEENS_28__exception_guard_exceptionsIT_EES8_, symObjAddr: 0x8FB0, symBinAddr: 0x10000A560, symSize: 0x40 }
  - { offsetInCU: 0xDFA4, offset: 0xDFA4, size: 0x8, addend: 0x0, symName: __ZNSt3__119__allocate_at_leastB8ue170006INS_9allocatorI6PersonEEEENS_19__allocation_resultINS_16allocator_traitsIT_E7pointerEEERS6_m, symObjAddr: 0x93B0, symBinAddr: 0x10000A960, symSize: 0x40 }
  - { offsetInCU: 0xDFE7, offset: 0xDFE7, size: 0x8, addend: 0x0, symName: __ZNSt3__112__to_addressB8ue170006I6PersonEEPT_S3_, symObjAddr: 0x96D4, symBinAddr: 0x10000AC84, symSize: 0x14 }
  - { offsetInCU: 0xE01C, offset: 0xE01C, size: 0x8, addend: 0x0, symName: __ZNSt3__130__uninitialized_allocator_copyB8ue170006INS_9allocatorI6PersonEEPKS2_S5_PS2_EET2_RT_T0_T1_S7_, symObjAddr: 0x9784, symBinAddr: 0x10000AD34, symSize: 0x80 }
  - { offsetInCU: 0xE0BA, offset: 0xE0BA, size: 0x8, addend: 0x0, symName: __ZNSt3__114__unwrap_rangeB8ue170006IPK6PersonS3_EENS_4pairIT0_S5_EET_S7_, symObjAddr: 0x9874, symBinAddr: 0x10000AE24, symSize: 0x60 }
  - { offsetInCU: 0xE105, offset: 0xE105, size: 0x8, addend: 0x0, symName: __ZNSt3__135__uninitialized_allocator_copy_implB8ue170006INS_9allocatorI6PersonEEPKS2_S5_PS2_EET2_RT_T0_T1_S7_, symObjAddr: 0x98D4, symBinAddr: 0x10000AE84, symSize: 0xF4 }
  - { offsetInCU: 0xE1A4, offset: 0xE1A4, size: 0x8, addend: 0x0, symName: __ZNSt3__113__unwrap_iterB8ue170006IP6PersonNS_18__unwrap_iter_implIS2_Lb1EEELi0EEEDTclsrT0_8__unwrapclsr3stdE7declvalIT_EEEES6_, symObjAddr: 0x99C8, symBinAddr: 0x10000AF78, symSize: 0x24 }
  - { offsetInCU: 0xE1E8, offset: 0xE1E8, size: 0x8, addend: 0x0, symName: __ZNSt3__113__rewrap_iterB8ue170006IP6PersonS2_NS_18__unwrap_iter_implIS2_Lb1EEEEET_S5_T0_, symObjAddr: 0x99EC, symBinAddr: 0x10000AF9C, symSize: 0x3C }
  - { offsetInCU: 0xE23C, offset: 0xE23C, size: 0x8, addend: 0x0, symName: __ZNSt3__19make_pairB8ue170006IPK6PersonS3_EENS_4pairINS_18__unwrap_ref_decayIT_E4typeENS5_IT0_E4typeEEEOS6_OS9_, symObjAddr: 0x9A28, symBinAddr: 0x10000AFD8, symSize: 0x38 }
  - { offsetInCU: 0xE28C, offset: 0xE28C, size: 0x8, addend: 0x0, symName: __ZNSt3__113__unwrap_iterB8ue170006IPK6PersonNS_18__unwrap_iter_implIS3_Lb1EEELi0EEEDTclsrT0_8__unwrapclsr3stdE7declvalIT_EEEES7_, symObjAddr: 0x9A60, symBinAddr: 0x10000B010, symSize: 0x24 }
  - { offsetInCU: 0xE3F7, offset: 0xE3F7, size: 0x8, addend: 0x0, symName: __ZNSt3__112__to_addressB8ue170006IK6PersonEEPT_S4_, symObjAddr: 0x9B18, symBinAddr: 0x10000B0C8, symSize: 0x14 }
  - { offsetInCU: 0xE42D, offset: 0xE42D, size: 0x8, addend: 0x0, symName: __ZNSt3__122__make_exception_guardB8ue170006INS_29_AllocatorDestroyRangeReverseINS_9allocatorI6PersonEEPS3_EEEENS_28__exception_guard_exceptionsIT_EES8_, symObjAddr: 0x9B2C, symBinAddr: 0x10000B0DC, symSize: 0x4C }
  - { offsetInCU: 0xE462, offset: 0xE462, size: 0x8, addend: 0x0, symName: __ZNSt3__119__allocator_destroyB8ue170006INS_9allocatorI6PersonEENS_16reverse_iteratorIPS2_EES6_EEvRT_T0_T1_, symObjAddr: 0x9DBC, symBinAddr: 0x10000B36C, symSize: 0x70 }
  - { offsetInCU: 0xE4C6, offset: 0xE4C6, size: 0x8, addend: 0x0, symName: __ZNSt3__1neB8ue170006IP6PersonS2_EEbRKNS_16reverse_iteratorIT_EERKNS3_IT0_EE, symObjAddr: 0x9E60, symBinAddr: 0x10000B410, symSize: 0x48 }
  - { offsetInCU: 0xE512, offset: 0xE512, size: 0x8, addend: 0x0, symName: __ZNSt3__112__to_addressB8ue170006INS_16reverse_iteratorIP6PersonEEvEEu7__decayIDTclsr19__to_address_helperIT_EE6__callclsr3stdE7declvalIRKS5_EEEEES7_, symObjAddr: 0x9ED4, symBinAddr: 0x10000B484, symSize: 0x24 }
  - { offsetInCU: 0xE5C4, offset: 0xE5C4, size: 0x8, addend: 0x0, symName: '__ZNSt3__111__sort_implB8ue170006INS_17_ClassicAlgPolicyENS_11__wrap_iterIP6PersonEEZ5test5vE3$_5EEvT0_S7_RT1_', symObjAddr: 0xA444, symBinAddr: 0x10000B9F4, symSize: 0xA8 }
  - { offsetInCU: 0xE628, offset: 0xE628, size: 0x8, addend: 0x0, symName: __ZNSt3__123__debug_randomize_rangeB8ue170006INS_17_ClassicAlgPolicyENS_11__wrap_iterIP6PersonEES5_EEvT0_T1_, symObjAddr: 0xA4EC, symBinAddr: 0x10000BA9C, symSize: 0x14 }
  - { offsetInCU: 0xE679, offset: 0xE679, size: 0x8, addend: 0x0, symName: '__ZNSt3__115__sort_dispatchB8ue170006INS_17_ClassicAlgPolicyEP6PersonZ5test5vE3$_5EEvT0_S5_RT1_', symObjAddr: 0xA500, symBinAddr: 0x10000BAB0, symSize: 0x64 }
  - { offsetInCU: 0xE6F8, offset: 0xE6F8, size: 0x8, addend: 0x0, symName: __ZNSt3__113__unwrap_iterB8ue170006INS_11__wrap_iterIP6PersonEENS_18__unwrap_iter_implIS4_Lb1EEELi0EEEDTclsrT0_8__unwrapclsr3stdE7declvalIT_EEEES8_, symObjAddr: 0xA564, symBinAddr: 0x10000BB14, symSize: 0x2C }
  - { offsetInCU: 0xE73C, offset: 0xE73C, size: 0x8, addend: 0x0, symName: '__ZNSt3__135__check_strict_weak_ordering_sortedB8ue170006IP6PersonZ5test5vE3$_5EEvT_S4_RT0_', symObjAddr: 0xA590, symBinAddr: 0x10000BB40, symSize: 0x18 }
  - { offsetInCU: 0xE792, offset: 0xE792, size: 0x8, addend: 0x0, symName: __ZNSt3__17__log2iB8ue170006IlEET_S1_, symObjAddr: 0xA5A8, symBinAddr: 0x10000BB58, symSize: 0x54 }
  - { offsetInCU: 0xE7CA, offset: 0xE7CA, size: 0x8, addend: 0x0, symName: __ZNSt3__112__libcpp_clzB8ue170006Em, symObjAddr: 0xAA48, symBinAddr: 0x10000BFF8, symSize: 0x1C }
  - { offsetInCU: 0xE7F6, offset: 0xE7F6, size: 0x8, addend: 0x0, symName: '__ZNSt3__124__sort3_maybe_branchlessB8ue170006INS_17_ClassicAlgPolicyERZ5test5vE3$_5P6PersonEENS_9enable_ifIXntsr21__use_branchless_sortIT0_T1_EE5valueEvE4typeES8_S8_S8_S7_', symObjAddr: 0xAB2C, symBinAddr: 0x10000C0DC, symSize: 0x3C }
  - { offsetInCU: 0xE867, offset: 0xE867, size: 0x8, addend: 0x0, symName: '__ZNSt3__124__sort4_maybe_branchlessB8ue170006INS_17_ClassicAlgPolicyERZ5test5vE3$_5P6PersonEENS_9enable_ifIXntsr21__use_branchless_sortIT0_T1_EE5valueEvE4typeES8_S8_S8_S8_S7_', symObjAddr: 0xAB68, symBinAddr: 0x10000C118, symSize: 0x44 }
  - { offsetInCU: 0xE8E6, offset: 0xE8E6, size: 0x8, addend: 0x0, symName: '__ZNSt3__124__sort5_maybe_branchlessB8ue170006INS_17_ClassicAlgPolicyERZ5test5vE3$_5P6PersonEENS_9enable_ifIXntsr21__use_branchless_sortIT0_T1_EE5valueEvE4typeES8_S8_S8_S8_S8_S7_', symObjAddr: 0xABAC, symBinAddr: 0x10000C15C, symSize: 0x4C }
  - { offsetInCU: 0xE973, offset: 0xE973, size: 0x8, addend: 0x0, symName: '__ZNSt3__116__insertion_sortB8ue170006INS_17_ClassicAlgPolicyERZ5test5vE3$_5P6PersonEEvT1_S6_T0_', symObjAddr: 0xABF8, symBinAddr: 0x10000C1A8, symSize: 0x198 }
  - { offsetInCU: 0xEA26, offset: 0xEA26, size: 0x8, addend: 0x0, symName: '__ZNSt3__114__partial_sortB8ue170006INS_17_ClassicAlgPolicyERZ5test5vE3$_5P6PersonS5_EET1_S6_S6_T2_RT0_', symObjAddr: 0xAEF8, symBinAddr: 0x10000C4A8, symSize: 0x94 }
  - { offsetInCU: 0xEAAE, offset: 0xEAAE, size: 0x8, addend: 0x0, symName: '__ZNSt3__17__sort3B8ue170006INS_17_ClassicAlgPolicyERZ5test5vE3$_5P6PersonEEjT1_S6_S6_T0_', symObjAddr: 0xAF8C, symBinAddr: 0x10000C53C, symSize: 0x144 }
  - { offsetInCU: 0xEB2D, offset: 0xEB2D, size: 0x8, addend: 0x0, symName: __ZNSt3__1ltB8ue170006IcNS_11char_traitsIcEENS_9allocatorIcEEEEbRKNS_12basic_stringIT_T0_T1_EESB_, symObjAddr: 0xBD78, symBinAddr: 0x10000D328, symSize: 0x38 }
  - { offsetInCU: 0xEB86, offset: 0xEB86, size: 0x8, addend: 0x0, symName: __ZNSt3__19iter_swapB8ue170006IP6PersonS2_EEvT_T0_, symObjAddr: 0xC07C, symBinAddr: 0x10000D62C, symSize: 0x2C }
  - { offsetInCU: 0xEBCE, offset: 0xEBCE, size: 0x8, addend: 0x0, symName: __ZNSt3__14swapB8ue170006I6PersonEENS_9enable_ifIXaasr21is_move_constructibleIT_EE5valuesr18is_move_assignableIS3_EE5valueEvE4typeERS3_S6_, symObjAddr: 0xC0A8, symBinAddr: 0x10000D658, symSize: 0x74 }
  - { offsetInCU: 0xEC1E, offset: 0xEC1E, size: 0x8, addend: 0x0, symName: '__ZNSt3__17__sort4B8ue170006INS_17_ClassicAlgPolicyERZ5test5vE3$_5P6PersonEEvT1_S6_S6_S6_T0_', symObjAddr: 0xC15C, symBinAddr: 0x10000D70C, symSize: 0xB8 }
  - { offsetInCU: 0xEC99, offset: 0xEC99, size: 0x8, addend: 0x0, symName: '__ZNSt3__17__sort5B8ue170006INS_17_ClassicAlgPolicyERZ5test5vE3$_5P6PersonEEvT1_S6_S6_S6_S6_T0_', symObjAddr: 0xC214, symBinAddr: 0x10000D7C4, symSize: 0xE8 }
  - { offsetInCU: 0xED47, offset: 0xED47, size: 0x8, addend: 0x0, symName: __ZNSt3__123__debug_randomize_rangeB8ue170006INS_17_ClassicAlgPolicyEP6PersonS3_EEvT0_T1_, symObjAddr: 0xC340, symBinAddr: 0x10000D8F0, symSize: 0x14 }
  - { offsetInCU: 0xED98, offset: 0xED98, size: 0x8, addend: 0x0, symName: '__ZNSt3__119__partial_sort_implB8ue170006INS_17_ClassicAlgPolicyERZ5test5vE3$_5P6PersonS5_EET1_S6_S6_T2_OT0_', symObjAddr: 0xC354, symBinAddr: 0x10000D904, symSize: 0x110 }
  - { offsetInCU: 0xEE2E, offset: 0xEE2E, size: 0x8, addend: 0x0, symName: '__ZNSt3__111__make_heapB8ue170006INS_17_ClassicAlgPolicyERZ5test5vE3$_5P6PersonEEvT1_S6_OT0_', symObjAddr: 0xC464, symBinAddr: 0x10000DA14, symSize: 0xB8 }
  - { offsetInCU: 0xEED0, offset: 0xEED0, size: 0x8, addend: 0x0, symName: '__ZNSt3__111__sort_heapB8ue170006INS_17_ClassicAlgPolicyERZ5test5vE3$_5P6PersonEEvT1_S6_OT0_', symObjAddr: 0xC77C, symBinAddr: 0x10000DD2C, symSize: 0xA8 }
  - { offsetInCU: 0xEF72, offset: 0xEF72, size: 0x8, addend: 0x0, symName: '__ZNSt3__110__pop_heapB8ue170006INS_17_ClassicAlgPolicyEZ5test5vE3$_5P6PersonEEvT1_S5_RT0_NS_15iterator_traitsIS5_E15difference_typeE', symObjAddr: 0xC824, symBinAddr: 0x10000DDD4, symSize: 0x144 }
  - { offsetInCU: 0xF01A, offset: 0xF01A, size: 0x8, addend: 0x0, symName: '__ZNSt3__19__sift_upB8ue170006INS_17_ClassicAlgPolicyERZ5test5vE3$_5P6PersonEEvT1_S6_OT0_NS_15iterator_traitsIS6_E15difference_typeE', symObjAddr: 0xCA68, symBinAddr: 0x10000E018, symSize: 0x164 }
  - { offsetInCU: 0xF0BA, offset: 0xF0BA, size: 0x8, addend: 0x0, symName: '__ZNSt3__122__populate_left_bitsetB8ue170006IRZ5test5vE3$_5P6PersonS3_EEvT0_T_RT1_Ry', symObjAddr: 0xCBCC, symBinAddr: 0x10000E17C, symSize: 0xA8 }
  - { offsetInCU: 0xF175, offset: 0xF175, size: 0x8, addend: 0x0, symName: '__ZNSt3__123__populate_right_bitsetB8ue170006IRZ5test5vE3$_5P6PersonS3_EEvT0_T_RT1_Ry', symObjAddr: 0xCC74, symBinAddr: 0x10000E224, symSize: 0xA0 }
  - { offsetInCU: 0xF230, offset: 0xF230, size: 0x8, addend: 0x0, symName: __ZNSt3__117__swap_bitmap_posB8ue170006INS_17_ClassicAlgPolicyEP6PersonEEvT0_S4_RyS5_, symObjAddr: 0xCD14, symBinAddr: 0x10000E2C4, symSize: 0x100 }
  - { offsetInCU: 0xF2D1, offset: 0xF2D1, size: 0x8, addend: 0x0, symName: '__ZNSt3__133__bitset_partition_partial_blocksB8ue170006INS_17_ClassicAlgPolicyERZ5test5vE3$_5P6PersonS4_EEvRT1_S7_T0_RT2_RySB_', symObjAddr: 0xCE14, symBinAddr: 0x10000E3C4, symSize: 0x2E8 }
  - { offsetInCU: 0xF452, offset: 0xF452, size: 0x8, addend: 0x0, symName: __ZNSt3__19make_pairB8ue170006IRP6PersonRbEENS_4pairINS_18__unwrap_ref_decayIT_E4typeENS6_IT0_E4typeEEEOS7_OSA_, symObjAddr: 0xD2DC, symBinAddr: 0x10000E88C, symSize: 0x38 }
  - { offsetInCU: 0xF4A2, offset: 0xF4A2, size: 0x8, addend: 0x0, symName: __ZNSt3__112__libcpp_ctzB8ue170006Ey, symObjAddr: 0xD314, symBinAddr: 0x10000E8C4, symSize: 0x20 }
  - { offsetInCU: 0xF4CF, offset: 0xF4CF, size: 0x8, addend: 0x0, symName: __ZNSt3__113__libcpp_blsrB8ue170006Ey, symObjAddr: 0xD334, symBinAddr: 0x10000E8E4, symSize: 0x2C }
  - { offsetInCU: 0xF4FC, offset: 0xF4FC, size: 0x8, addend: 0x0, symName: __ZNSt3__112__libcpp_clzB8ue170006Ey, symObjAddr: 0xD394, symBinAddr: 0x10000E944, symSize: 0x1C }
  - { offsetInCU: 0xF650, offset: 0xF650, size: 0x8, addend: 0x0, symName: __ZNSt3__112__to_addressB8ue170006INS_11__wrap_iterIP6PersonEEvEEu7__decayIDTclsr19__to_address_helperIT_EE6__callclsr3stdE7declvalIRKS5_EEEEES7_, symObjAddr: 0xD44C, symBinAddr: 0x10000E9FC, symSize: 0x24 }
  - { offsetInCU: 0xFC7A, offset: 0xFC7A, size: 0x8, addend: 0x0, symName: __ZSt28__throw_bad_array_new_lengthB8ue170006v, symObjAddr: 0x32D4, symBinAddr: 0x100004884, symSize: 0x34 }
  - { offsetInCU: 0x103A6, offset: 0x103A6, size: 0x8, addend: 0x0, symName: __Z5test2v, symObjAddr: 0x2EC, symBinAddr: 0x10000189C, symSize: 0x350 }
  - { offsetInCU: 0x12C0B, offset: 0x12C0B, size: 0x8, addend: 0x0, symName: __Z5test1v, symObjAddr: 0x0, symBinAddr: 0x1000015B0, symSize: 0xFC }
  - { offsetInCU: 0x12C4D, offset: 0x12C4D, size: 0x8, addend: 0x0, symName: __ZNSt3__113basic_ostreamIcNS_11char_traitsIcEEElsB8ue170006EPFRS3_S4_E, symObjAddr: 0x144, symBinAddr: 0x1000016F4, symSize: 0x2C }
  - { offsetInCU: 0x12C81, offset: 0x12C81, size: 0x8, addend: 0x0, symName: __ZNSt3__16vectorIiNS_9allocatorIiEEEC1B8ue170006ESt16initializer_listIiE, symObjAddr: 0x1C8, symBinAddr: 0x100001778, symSize: 0x3C }
  - { offsetInCU: 0x12CBC, offset: 0x12CBC, size: 0x8, addend: 0x0, symName: __ZNSt3__16vectorIiNS_9allocatorIiEEE5beginB8ue170006Ev, symObjAddr: 0x260, symBinAddr: 0x100001810, symSize: 0x30 }
  - { offsetInCU: 0x12CE4, offset: 0x12CE4, size: 0x8, addend: 0x0, symName: __ZNSt3__16vectorIiNS_9allocatorIiEEE3endB8ue170006Ev, symObjAddr: 0x290, symBinAddr: 0x100001840, symSize: 0x30 }
  - { offsetInCU: 0x12D0C, offset: 0x12D0C, size: 0x8, addend: 0x0, symName: __ZNSt3__16vectorIiNS_9allocatorIiEEED1B8ue170006Ev, symObjAddr: 0x2C0, symBinAddr: 0x100001870, symSize: 0x2C }
  - { offsetInCU: 0x12D36, offset: 0x12D36, size: 0x8, addend: 0x0, symName: __ZNSt3__16vectorIZ5test2vE5PointNS_9allocatorIS1_EEEC1B8ue170006ESt16initializer_listIS1_E, symObjAddr: 0x63C, symBinAddr: 0x100001BEC, symSize: 0x3C }
  - { offsetInCU: 0x12D71, offset: 0x12D71, size: 0x8, addend: 0x0, symName: __ZNSt3__16vectorIZ5test2vE5PointNS_9allocatorIS1_EEE5beginB8ue170006Ev, symObjAddr: 0x6CC, symBinAddr: 0x100001C7C, symSize: 0x30 }
  - { offsetInCU: 0x12D99, offset: 0x12D99, size: 0x8, addend: 0x0, symName: __ZNSt3__16vectorIZ5test2vE5PointNS_9allocatorIS1_EEE3endB8ue170006Ev, symObjAddr: 0x6FC, symBinAddr: 0x100001CAC, symSize: 0x30 }
  - { offsetInCU: 0x12DC1, offset: 0x12DC1, size: 0x8, addend: 0x0, symName: __ZNSt3__16vectorIZ5test2vE5PointNS_9allocatorIS1_EEED1B8ue170006Ev, symObjAddr: 0x780, symBinAddr: 0x100001D30, symSize: 0x2C }
  - { offsetInCU: 0x12DEB, offset: 0x12DEB, size: 0x8, addend: 0x0, symName: __Z5test3v, symObjAddr: 0x7AC, symBinAddr: 0x100001D5C, symSize: 0x1C4 }
  - { offsetInCU: 0x12E9F, offset: 0x12E9F, size: 0x8, addend: 0x0, symName: __ZNKSt3__111__wrap_iterIPiEdeB8ue170006Ev, symObjAddr: 0xA38, symBinAddr: 0x100001FE8, symSize: 0x18 }
  - { offsetInCU: 0x12EC5, offset: 0x12EC5, size: 0x8, addend: 0x0, symName: __ZNSt3__111__wrap_iterIPiEppB8ue170006Ev, symObjAddr: 0xA50, symBinAddr: 0x100002000, symSize: 0x20 }
  - { offsetInCU: 0x12EEB, offset: 0x12EEB, size: 0x8, addend: 0x0, symName: __Z5test4v, symObjAddr: 0xA70, symBinAddr: 0x100002020, symSize: 0x1F4 }
  - { offsetInCU: 0x12F87, offset: 0x12F87, size: 0x8, addend: 0x0, symName: __ZNSt3__16vectorIiNS_9allocatorIiEEE5eraseENS_11__wrap_iterIPKiEES7_, symObjAddr: 0xC64, symBinAddr: 0x100002214, symSize: 0xD0 }
  - { offsetInCU: 0x12FE8, offset: 0x12FE8, size: 0x8, addend: 0x0, symName: __ZNSt3__111__wrap_iterIPKiEC1B8ue170006IPiEERKNS0_IT_EEPNS_9enable_ifIXsr14is_convertibleIS6_S2_EE5valueEvE4typeE, symObjAddr: 0xE30, symBinAddr: 0x1000023E0, symSize: 0x3C }
  - { offsetInCU: 0x13034, offset: 0x13034, size: 0x8, addend: 0x0, symName: __ZlsRNSt3__113basic_ostreamIcNS_11char_traitsIcEEEERK6Person, symObjAddr: 0xE6C, symBinAddr: 0x10000241C, symSize: 0x60 }
  - { offsetInCU: 0x1306E, offset: 0x1306E, size: 0x8, addend: 0x0, symName: __Z5test5v, symObjAddr: 0xF18, symBinAddr: 0x1000024C8, symSize: 0x418 }
  - { offsetInCU: 0x13133, offset: 0x13133, size: 0x8, addend: 0x0, symName: __ZNSt3__112basic_stringIcNS_11char_traitsIcEENS_9allocatorIcEEEC1B8ue170006ILi0EEEPKc, symObjAddr: 0x1330, symBinAddr: 0x1000028E0, symSize: 0x34 }
  - { offsetInCU: 0x13172, offset: 0x13172, size: 0x8, addend: 0x0, symName: __ZN6PersonC1ENSt3__112basic_stringIcNS0_11char_traitsIcEENS0_9allocatorIcEEEEi, symObjAddr: 0x1364, symBinAddr: 0x100002914, symSize: 0x3C }
  - { offsetInCU: 0x131B9, offset: 0x131B9, size: 0x8, addend: 0x0, symName: __ZN6PersonC1ERKS_, symObjAddr: 0x13A0, symBinAddr: 0x100002950, symSize: 0x34 }
  - { offsetInCU: 0x131F1, offset: 0x131F1, size: 0x8, addend: 0x0, symName: __ZN6PersonD1Ev, symObjAddr: 0x13D4, symBinAddr: 0x100002984, symSize: 0x2C }
  - { offsetInCU: 0x1321B, offset: 0x1321B, size: 0x8, addend: 0x0, symName: __ZNSt3__16vectorI6PersonNS_9allocatorIS1_EEEC1B8ue170006ESt16initializer_listIS1_E, symObjAddr: 0x1400, symBinAddr: 0x1000029B0, symSize: 0x3C }
  - { offsetInCU: 0x13256, offset: 0x13256, size: 0x8, addend: 0x0, symName: __ZNSt3__16vectorI6PersonNS_9allocatorIS1_EEE5beginB8ue170006Ev, symObjAddr: 0x147C, symBinAddr: 0x100002A2C, symSize: 0x30 }
  - { offsetInCU: 0x1327E, offset: 0x1327E, size: 0x8, addend: 0x0, symName: __ZNSt3__16vectorI6PersonNS_9allocatorIS1_EEE3endB8ue170006Ev, symObjAddr: 0x14AC, symBinAddr: 0x100002A5C, symSize: 0x30 }
  - { offsetInCU: 0x132A6, offset: 0x132A6, size: 0x8, addend: 0x0, symName: __ZNKSt3__111__wrap_iterIP6PersonEdeB8ue170006Ev, symObjAddr: 0x1510, symBinAddr: 0x100002AC0, symSize: 0x18 }
  - { offsetInCU: 0x132CC, offset: 0x132CC, size: 0x8, addend: 0x0, symName: __ZNSt3__111__wrap_iterIP6PersonEppB8ue170006Ev, symObjAddr: 0x1528, symBinAddr: 0x100002AD8, symSize: 0x20 }
  - { offsetInCU: 0x132F2, offset: 0x132F2, size: 0x8, addend: 0x0, symName: __ZNSt3__16vectorI6PersonNS_9allocatorIS1_EEED1B8ue170006Ev, symObjAddr: 0x1548, symBinAddr: 0x100002AF8, symSize: 0x2C }
  - { offsetInCU: 0x1331C, offset: 0x1331C, size: 0x8, addend: 0x0, symName: __Z10in_betweenRKNSt3__16vectorIiNS_9allocatorIiEEEEii, symObjAddr: 0x1574, symBinAddr: 0x100002B24, symSize: 0x74 }
  - { offsetInCU: 0x133A9, offset: 0x133A9, size: 0x8, addend: 0x0, symName: __ZNKSt3__16vectorIiNS_9allocatorIiEEE5beginB8ue170006Ev, symObjAddr: 0x1680, symBinAddr: 0x100002C30, symSize: 0x30 }
  - { offsetInCU: 0x133D1, offset: 0x133D1, size: 0x8, addend: 0x0, symName: __ZNKSt3__16vectorIiNS_9allocatorIiEEE3endB8ue170006Ev, symObjAddr: 0x16B0, symBinAddr: 0x100002C60, symSize: 0x30 }
  - { offsetInCU: 0x133F9, offset: 0x133F9, size: 0x8, addend: 0x0, symName: __Z5test6v, symObjAddr: 0x16E0, symBinAddr: 0x100002C90, symSize: 0x218 }
  - { offsetInCU: 0x13475, offset: 0x13475, size: 0x8, addend: 0x0, symName: __ZNSt3__113basic_ostreamIcNS_11char_traitsIcEEElsB8ue170006EPFRNS_8ios_baseES5_E, symObjAddr: 0x18F8, symBinAddr: 0x100002EA8, symSize: 0x40 }
  - { offsetInCU: 0x134A9, offset: 0x134A9, size: 0x8, addend: 0x0, symName: __ZNSt3__16vectorIiNS_9allocatorIiEEEC1Em, symObjAddr: 0x1964, symBinAddr: 0x100002F14, symSize: 0x34 }
  - { offsetInCU: 0x134E4, offset: 0x134E4, size: 0x8, addend: 0x0, symName: __Z5test7v, symObjAddr: 0x1A08, symBinAddr: 0x100002FB8, symSize: 0x648 }
  - { offsetInCU: 0x1356D, offset: 0x1356D, size: 0x8, addend: 0x0, symName: __ZN19Password_Validator1C1Ev, symObjAddr: 0x2050, symBinAddr: 0x100003600, symSize: 0x2C }
  - { offsetInCU: 0x13599, offset: 0x13599, size: 0x8, addend: 0x0, symName: __ZN19Password_Validator18is_validENSt3__112basic_stringIcNS0_11char_traitsIcEENS0_9allocatorIcEEEE, symObjAddr: 0x207C, symBinAddr: 0x10000362C, symSize: 0x6C }
  - { offsetInCU: 0x135F9, offset: 0x135F9, size: 0x8, addend: 0x0, symName: __ZNSt3__112basic_stringIcNS_11char_traitsIcEENS_9allocatorIcEEEaSB8ue170006EPKc, symObjAddr: 0x20E8, symBinAddr: 0x100003698, symSize: 0x2C }
  - { offsetInCU: 0x1367F, offset: 0x1367F, size: 0x8, addend: 0x0, symName: __ZN19Password_Validator2C1Ev, symObjAddr: 0x2114, symBinAddr: 0x1000036C4, symSize: 0x2C }
  - { offsetInCU: 0x136AB, offset: 0x136AB, size: 0x8, addend: 0x0, symName: __ZN19Password_Validator28is_validENSt3__112basic_stringIcNS0_11char_traitsIcEENS0_9allocatorIcEEEE, symObjAddr: 0x2140, symBinAddr: 0x1000036F0, symSize: 0x6C }
  - { offsetInCU: 0x1370B, offset: 0x1370B, size: 0x8, addend: 0x0, symName: __ZN19Password_Validator2D1Ev, symObjAddr: 0x21AC, symBinAddr: 0x10000375C, symSize: 0x2C }
  - { offsetInCU: 0x13737, offset: 0x13737, size: 0x8, addend: 0x0, symName: _main, symObjAddr: 0x21D8, symBinAddr: 0x100003788, symSize: 0x58 }
  - { offsetInCU: 0x13752, offset: 0x13752, size: 0x8, addend: 0x0, symName: __ZNKSt3__111__wrap_iterIPiE4baseB8ue170006Ev, symObjAddr: 0x2278, symBinAddr: 0x100003828, symSize: 0x18 }
  - { offsetInCU: 0x13778, offset: 0x13778, size: 0x8, addend: 0x0, symName: __ZNSt3__111__wrap_iterIPKiEC2B8ue170006IPiEERKNS0_IT_EEPNS_9enable_ifIXsr14is_convertibleIS6_S2_EE5valueEvE4typeE, symObjAddr: 0x2290, symBinAddr: 0x100003840, symSize: 0x40 }
  - { offsetInCU: 0x137C4, offset: 0x137C4, size: 0x8, addend: 0x0, symName: __ZN6PersonC2ENSt3__112basic_stringIcNS0_11char_traitsIcEENS0_9allocatorIcEEEEi, symObjAddr: 0x22D0, symBinAddr: 0x100003880, symSize: 0x40 }
  - { offsetInCU: 0x1380B, offset: 0x1380B, size: 0x8, addend: 0x0, symName: __ZN6PersonC2ERKS_, symObjAddr: 0x2310, symBinAddr: 0x1000038C0, symSize: 0x40 }
  - { offsetInCU: 0x13843, offset: 0x13843, size: 0x8, addend: 0x0, symName: __ZN6PersonD2Ev, symObjAddr: 0x2350, symBinAddr: 0x100003900, symSize: 0x2C }
  - { offsetInCU: 0x1386D, offset: 0x1386D, size: 0x8, addend: 0x0, symName: __ZNKSt3__111__wrap_iterIP6PersonE4baseB8ue170006Ev, symObjAddr: 0x23C4, symBinAddr: 0x100003974, symSize: 0x18 }
  - { offsetInCU: 0x13893, offset: 0x13893, size: 0x8, addend: 0x0, symName: __ZNSt3__18ios_base4setfB8ue170006Ej, symObjAddr: 0x23DC, symBinAddr: 0x10000398C, symSize: 0x34 }
  - { offsetInCU: 0x138D9, offset: 0x138D9, size: 0x8, addend: 0x0, symName: __ZN19Password_Validator1C2Ev, symObjAddr: 0x2410, symBinAddr: 0x1000039C0, symSize: 0x1C }
  - { offsetInCU: 0x13905, offset: 0x13905, size: 0x8, addend: 0x0, symName: __ZNSt3__112basic_stringIcNS_11char_traitsIcEENS_9allocatorIcEEE5beginB8ue170006Ev, symObjAddr: 0x24C4, symBinAddr: 0x100003A74, symSize: 0x4C }
  - { offsetInCU: 0x1392B, offset: 0x1392B, size: 0x8, addend: 0x0, symName: __ZNSt3__112basic_stringIcNS_11char_traitsIcEENS_9allocatorIcEEE3endB8ue170006Ev, symObjAddr: 0x2510, symBinAddr: 0x100003AC0, symSize: 0x54 }
  - { offsetInCU: 0x13962, offset: 0x13962, size: 0x8, addend: 0x0, symName: __ZZN19Password_Validator18is_validENSt3__112basic_stringIcNS0_11char_traitsIcEENS0_9allocatorIcEEEEENKUlcE_clEc, symObjAddr: 0x2598, symBinAddr: 0x100003B48, symSize: 0x30 }
  - { offsetInCU: 0x1399A, offset: 0x1399A, size: 0x8, addend: 0x0, symName: __ZNKSt3__111__wrap_iterIPcEdeB8ue170006Ev, symObjAddr: 0x25C8, symBinAddr: 0x100003B78, symSize: 0x18 }
  - { offsetInCU: 0x139C0, offset: 0x139C0, size: 0x8, addend: 0x0, symName: __ZNSt3__111__wrap_iterIPcEppB8ue170006Ev, symObjAddr: 0x25E0, symBinAddr: 0x100003B90, symSize: 0x20 }
  - { offsetInCU: 0x139E6, offset: 0x139E6, size: 0x8, addend: 0x0, symName: __ZNKSt3__111__wrap_iterIPcE4baseB8ue170006Ev, symObjAddr: 0x2648, symBinAddr: 0x100003BF8, symSize: 0x18 }
  - { offsetInCU: 0x13A0C, offset: 0x13A0C, size: 0x8, addend: 0x0, symName: __ZNSt3__112basic_stringIcNS_11char_traitsIcEENS_9allocatorIcEEE15__make_iteratorB8ue170006EPc, symObjAddr: 0x2660, symBinAddr: 0x100003C10, symSize: 0x30 }
  - { offsetInCU: 0x13A41, offset: 0x13A41, size: 0x8, addend: 0x0, symName: __ZNSt3__112basic_stringIcNS_11char_traitsIcEENS_9allocatorIcEEE13__get_pointerB8ue170006Ev, symObjAddr: 0x2690, symBinAddr: 0x100003C40, symSize: 0x54 }
  - { offsetInCU: 0x13A67, offset: 0x13A67, size: 0x8, addend: 0x0, symName: __ZNSt3__111__wrap_iterIPcEC1B8ue170006ES1_, symObjAddr: 0x26F0, symBinAddr: 0x100003CA0, symSize: 0x34 }
  - { offsetInCU: 0x13A9F, offset: 0x13A9F, size: 0x8, addend: 0x0, symName: __ZNSt3__111__wrap_iterIPcEC2B8ue170006ES1_, symObjAddr: 0x2724, symBinAddr: 0x100003CD4, symSize: 0x20 }
  - { offsetInCU: 0x13AD7, offset: 0x13AD7, size: 0x8, addend: 0x0, symName: __ZNKSt3__112basic_stringIcNS_11char_traitsIcEENS_9allocatorIcEEE9__is_longB8ue170006Ev, symObjAddr: 0x2744, symBinAddr: 0x100003CF4, symSize: 0x38 }
  - { offsetInCU: 0x13AFD, offset: 0x13AFD, size: 0x8, addend: 0x0, symName: __ZNSt3__112basic_stringIcNS_11char_traitsIcEENS_9allocatorIcEEE18__get_long_pointerB8ue170006Ev, symObjAddr: 0x277C, symBinAddr: 0x100003D2C, symSize: 0x28 }
  - { offsetInCU: 0x13B23, offset: 0x13B23, size: 0x8, addend: 0x0, symName: __ZNSt3__112basic_stringIcNS_11char_traitsIcEENS_9allocatorIcEEE19__get_short_pointerB8ue170006Ev, symObjAddr: 0x27A4, symBinAddr: 0x100003D54, symSize: 0x28 }
  - { offsetInCU: 0x13B49, offset: 0x13B49, size: 0x8, addend: 0x0, symName: __ZNKSt3__117__compressed_pairINS_12basic_stringIcNS_11char_traitsIcEENS_9allocatorIcEEE5__repES5_E5firstB8ue170006Ev, symObjAddr: 0x27CC, symBinAddr: 0x100003D7C, symSize: 0x24 }
  - { offsetInCU: 0x13B6F, offset: 0x13B6F, size: 0x8, addend: 0x0, symName: __ZNKSt3__122__compressed_pair_elemINS_12basic_stringIcNS_11char_traitsIcEENS_9allocatorIcEEE5__repELi0ELb0EE5__getB8ue170006Ev, symObjAddr: 0x27F0, symBinAddr: 0x100003DA0, symSize: 0x14 }
  - { offsetInCU: 0x13B95, offset: 0x13B95, size: 0x8, addend: 0x0, symName: __ZNSt3__117__compressed_pairINS_12basic_stringIcNS_11char_traitsIcEENS_9allocatorIcEEE5__repES5_E5firstB8ue170006Ev, symObjAddr: 0x2804, symBinAddr: 0x100003DB4, symSize: 0x24 }
  - { offsetInCU: 0x13BBB, offset: 0x13BBB, size: 0x8, addend: 0x0, symName: __ZNSt3__122__compressed_pair_elemINS_12basic_stringIcNS_11char_traitsIcEENS_9allocatorIcEEE5__repELi0ELb0EE5__getB8ue170006Ev, symObjAddr: 0x2828, symBinAddr: 0x100003DD8, symSize: 0x14 }
  - { offsetInCU: 0x13BE1, offset: 0x13BE1, size: 0x8, addend: 0x0, symName: __ZNSt3__114pointer_traitsIPcE10pointer_toB8ue170006ERc, symObjAddr: 0x283C, symBinAddr: 0x100003DEC, symSize: 0x14 }
  - { offsetInCU: 0x13C04, offset: 0x13C04, size: 0x8, addend: 0x0, symName: __ZNKSt3__112basic_stringIcNS_11char_traitsIcEENS_9allocatorIcEEE4sizeB8ue170006Ev, symObjAddr: 0x2850, symBinAddr: 0x100003E00, symSize: 0x54 }
  - { offsetInCU: 0x13C2A, offset: 0x13C2A, size: 0x8, addend: 0x0, symName: __ZNKSt3__112basic_stringIcNS_11char_traitsIcEENS_9allocatorIcEEE15__get_long_sizeB8ue170006Ev, symObjAddr: 0x28A4, symBinAddr: 0x100003E54, symSize: 0x28 }
  - { offsetInCU: 0x13C50, offset: 0x13C50, size: 0x8, addend: 0x0, symName: __ZNKSt3__112basic_stringIcNS_11char_traitsIcEENS_9allocatorIcEEE16__get_short_sizeB8ue170006Ev, symObjAddr: 0x28CC, symBinAddr: 0x100003E7C, symSize: 0x34 }
  - { offsetInCU: 0x13C76, offset: 0x13C76, size: 0x8, addend: 0x0, symName: __ZN19Password_Validator2C2Ev, symObjAddr: 0x2900, symBinAddr: 0x100003EB0, symSize: 0x5C }
  - { offsetInCU: 0x13CA2, offset: 0x13CA2, size: 0x8, addend: 0x0, symName: __ZNSt3__16vectorIcNS_9allocatorIcEEEC1B8ue170006ESt16initializer_listIcE, symObjAddr: 0x295C, symBinAddr: 0x100003F0C, symSize: 0x3C }
  - { offsetInCU: 0x13CDD, offset: 0x13CDD, size: 0x8, addend: 0x0, symName: __ZNSt3__16vectorIcNS_9allocatorIcEEEC2B8ue170006ESt16initializer_listIcE, symObjAddr: 0x2998, symBinAddr: 0x100003F48, symSize: 0x120 }
  - { offsetInCU: 0x13D39, offset: 0x13D39, size: 0x8, addend: 0x0, symName: __ZNSt3__117__compressed_pairIPcNS_9allocatorIcEEEC1B8ue170006IDnNS_18__default_init_tagEEEOT_OT0_, symObjAddr: 0x2AB8, symBinAddr: 0x100004068, symSize: 0x3C }
  - { offsetInCU: 0x13D91, offset: 0x13D91, size: 0x8, addend: 0x0, symName: __ZNSt3__16vectorIcNS_9allocatorIcEEE16__destroy_vectorC1B8ue170006ERS3_, symObjAddr: 0x2B34, symBinAddr: 0x1000040E4, symSize: 0x34 }
  - { offsetInCU: 0x13DCA, offset: 0x13DCA, size: 0x8, addend: 0x0, symName: __ZNKSt16initializer_listIcE4sizeB8ue170006Ev, symObjAddr: 0x2B68, symBinAddr: 0x100004118, symSize: 0x18 }
  - { offsetInCU: 0x13DF0, offset: 0x13DF0, size: 0x8, addend: 0x0, symName: __ZNSt3__16vectorIcNS_9allocatorIcEEE11__vallocateB8ue170006Em, symObjAddr: 0x2B80, symBinAddr: 0x100004130, symSize: 0xAC }
  - { offsetInCU: 0x13E34, offset: 0x13E34, size: 0x8, addend: 0x0, symName: __ZNSt3__16vectorIcNS_9allocatorIcEEE18__construct_at_endIPKcS6_EEvT_T0_m, symObjAddr: 0x2C2C, symBinAddr: 0x1000041DC, symSize: 0x8C }
  - { offsetInCU: 0x13EAA, offset: 0x13EAA, size: 0x8, addend: 0x0, symName: __ZNKSt16initializer_listIcE5beginB8ue170006Ev, symObjAddr: 0x2CB8, symBinAddr: 0x100004268, symSize: 0x18 }
  - { offsetInCU: 0x13ED0, offset: 0x13ED0, size: 0x8, addend: 0x0, symName: __ZNKSt16initializer_listIcE3endB8ue170006Ev, symObjAddr: 0x2CD0, symBinAddr: 0x100004280, symSize: 0x20 }
  - { offsetInCU: 0x13EF6, offset: 0x13EF6, size: 0x8, addend: 0x0, symName: __ZNSt3__128__exception_guard_exceptionsINS_6vectorIcNS_9allocatorIcEEE16__destroy_vectorEE10__completeB8ue170006Ev, symObjAddr: 0x2CF0, symBinAddr: 0x1000042A0, symSize: 0x1C }
  - { offsetInCU: 0x13F1C, offset: 0x13F1C, size: 0x8, addend: 0x0, symName: __ZNSt3__128__exception_guard_exceptionsINS_6vectorIcNS_9allocatorIcEEE16__destroy_vectorEED1B8ue170006Ev, symObjAddr: 0x2D0C, symBinAddr: 0x1000042BC, symSize: 0x2C }
  - { offsetInCU: 0x13F46, offset: 0x13F46, size: 0x8, addend: 0x0, symName: __ZNSt3__117__compressed_pairIPcNS_9allocatorIcEEEC2B8ue170006IDnNS_18__default_init_tagEEEOT_OT0_, symObjAddr: 0x2D38, symBinAddr: 0x1000042E8, symSize: 0x40 }
  - { offsetInCU: 0x13F9E, offset: 0x13F9E, size: 0x8, addend: 0x0, symName: __ZNSt3__122__compressed_pair_elemIPcLi0ELb0EEC2B8ue170006IDnvEEOT_, symObjAddr: 0x2D78, symBinAddr: 0x100004328, symSize: 0x1C }
  - { offsetInCU: 0x13FE0, offset: 0x13FE0, size: 0x8, addend: 0x0, symName: __ZNSt3__122__compressed_pair_elemINS_9allocatorIcEELi1ELb1EEC2B8ue170006ENS_18__default_init_tagE, symObjAddr: 0x2D94, symBinAddr: 0x100004344, symSize: 0x2C }
  - { offsetInCU: 0x14015, offset: 0x14015, size: 0x8, addend: 0x0, symName: __ZNSt3__19allocatorIcEC2B8ue170006Ev, symObjAddr: 0x2DC0, symBinAddr: 0x100004370, symSize: 0x2C }
  - { offsetInCU: 0x1403F, offset: 0x1403F, size: 0x8, addend: 0x0, symName: __ZNSt3__116__non_trivial_ifILb1ENS_9allocatorIcEEEC2B8ue170006Ev, symObjAddr: 0x2DEC, symBinAddr: 0x10000439C, symSize: 0x14 }
  - { offsetInCU: 0x14069, offset: 0x14069, size: 0x8, addend: 0x0, symName: __ZNSt3__128__exception_guard_exceptionsINS_6vectorIcNS_9allocatorIcEEE16__destroy_vectorEEC1B8ue170006ES5_, symObjAddr: 0x2E00, symBinAddr: 0x1000043B0, symSize: 0x34 }
  - { offsetInCU: 0x140A1, offset: 0x140A1, size: 0x8, addend: 0x0, symName: __ZNSt3__128__exception_guard_exceptionsINS_6vectorIcNS_9allocatorIcEEE16__destroy_vectorEEC2B8ue170006ES5_, symObjAddr: 0x2E34, symBinAddr: 0x1000043E4, symSize: 0x24 }
  - { offsetInCU: 0x140D9, offset: 0x140D9, size: 0x8, addend: 0x0, symName: __ZNSt3__16vectorIcNS_9allocatorIcEEE16__destroy_vectorC2B8ue170006ERS3_, symObjAddr: 0x2E58, symBinAddr: 0x100004408, symSize: 0x20 }
  - { offsetInCU: 0x14112, offset: 0x14112, size: 0x8, addend: 0x0, symName: __ZNKSt3__16vectorIcNS_9allocatorIcEEE8max_sizeEv, symObjAddr: 0x2E78, symBinAddr: 0x100004428, symSize: 0x60 }
  - { offsetInCU: 0x1413A, offset: 0x1413A, size: 0x8, addend: 0x0, symName: __ZNKSt3__16vectorIcNS_9allocatorIcEEE20__throw_length_errorB8ue170006Ev, symObjAddr: 0x2ED8, symBinAddr: 0x100004488, symSize: 0x1C }
  - { offsetInCU: 0x14160, offset: 0x14160, size: 0x8, addend: 0x0, symName: __ZNSt3__16vectorIcNS_9allocatorIcEEE7__allocB8ue170006Ev, symObjAddr: 0x2F34, symBinAddr: 0x1000044E4, symSize: 0x28 }
  - { offsetInCU: 0x14186, offset: 0x14186, size: 0x8, addend: 0x0, symName: __ZNSt3__16vectorIcNS_9allocatorIcEEE9__end_capB8ue170006Ev, symObjAddr: 0x2F5C, symBinAddr: 0x10000450C, symSize: 0x28 }
  - { offsetInCU: 0x141AC, offset: 0x141AC, size: 0x8, addend: 0x0, symName: __ZNKSt3__16vectorIcNS_9allocatorIcEEE14__annotate_newB8ue170006Em, symObjAddr: 0x2F84, symBinAddr: 0x100004534, symSize: 0xAC }
  - { offsetInCU: 0x141EC, offset: 0x141EC, size: 0x8, addend: 0x0, symName: __ZNSt3__116allocator_traitsINS_9allocatorIcEEE8max_sizeB8ue170006IS2_vEEmRKS2_, symObjAddr: 0x305C, symBinAddr: 0x10000460C, symSize: 0x24 }
  - { offsetInCU: 0x1421A, offset: 0x1421A, size: 0x8, addend: 0x0, symName: __ZNKSt3__16vectorIcNS_9allocatorIcEEE7__allocB8ue170006Ev, symObjAddr: 0x3080, symBinAddr: 0x100004630, symSize: 0x28 }
  - { offsetInCU: 0x14240, offset: 0x14240, size: 0x8, addend: 0x0, symName: __ZNSt3__114numeric_limitsIlE3maxB8ue170006Ev, symObjAddr: 0x30A8, symBinAddr: 0x100004658, symSize: 0x14 }
  - { offsetInCU: 0x1426A, offset: 0x1426A, size: 0x8, addend: 0x0, symName: __ZNKSt3__16__lessIvvEclB8ue170006ImmEEbRKT_RKT0_, symObjAddr: 0x3110, symBinAddr: 0x1000046C0, symSize: 0x34 }
  - { offsetInCU: 0x142BE, offset: 0x142BE, size: 0x8, addend: 0x0, symName: __ZNKSt3__19allocatorIcE8max_sizeB8ue170006Ev, symObjAddr: 0x3144, symBinAddr: 0x1000046F4, symSize: 0x14 }
  - { offsetInCU: 0x142E4, offset: 0x142E4, size: 0x8, addend: 0x0, symName: __ZNKSt3__117__compressed_pairIPcNS_9allocatorIcEEE6secondB8ue170006Ev, symObjAddr: 0x3158, symBinAddr: 0x100004708, symSize: 0x24 }
  - { offsetInCU: 0x1430A, offset: 0x1430A, size: 0x8, addend: 0x0, symName: __ZNKSt3__122__compressed_pair_elemINS_9allocatorIcEELi1ELb1EE5__getB8ue170006Ev, symObjAddr: 0x317C, symBinAddr: 0x10000472C, symSize: 0x14 }
  - { offsetInCU: 0x14330, offset: 0x14330, size: 0x8, addend: 0x0, symName: __ZNSt3__123__libcpp_numeric_limitsIlLb1EE3maxB8ue170006Ev, symObjAddr: 0x3190, symBinAddr: 0x100004740, symSize: 0x8 }
  - { offsetInCU: 0x14344, offset: 0x14344, size: 0x8, addend: 0x0, symName: __ZNSt12length_errorC1B8ue170006EPKc, symObjAddr: 0x31FC, symBinAddr: 0x1000047AC, symSize: 0x34 }
  - { offsetInCU: 0x1437C, offset: 0x1437C, size: 0x8, addend: 0x0, symName: __ZNSt12length_errorC2B8ue170006EPKc, symObjAddr: 0x3230, symBinAddr: 0x1000047E0, symSize: 0x4C }
  - { offsetInCU: 0x143B4, offset: 0x143B4, size: 0x8, addend: 0x0, symName: __ZNSt3__19allocatorIcE8allocateB8ue170006Em, symObjAddr: 0x327C, symBinAddr: 0x10000482C, symSize: 0x58 }
  - { offsetInCU: 0x143E8, offset: 0x143E8, size: 0x8, addend: 0x0, symName: __ZNSt3__117__compressed_pairIPcNS_9allocatorIcEEE6secondB8ue170006Ev, symObjAddr: 0x33D8, symBinAddr: 0x100004988, symSize: 0x24 }
  - { offsetInCU: 0x1440E, offset: 0x1440E, size: 0x8, addend: 0x0, symName: __ZNSt3__122__compressed_pair_elemINS_9allocatorIcEELi1ELb1EE5__getB8ue170006Ev, symObjAddr: 0x33FC, symBinAddr: 0x1000049AC, symSize: 0x14 }
  - { offsetInCU: 0x14434, offset: 0x14434, size: 0x8, addend: 0x0, symName: __ZNSt3__117__compressed_pairIPcNS_9allocatorIcEEE5firstB8ue170006Ev, symObjAddr: 0x3410, symBinAddr: 0x1000049C0, symSize: 0x24 }
  - { offsetInCU: 0x1445A, offset: 0x1445A, size: 0x8, addend: 0x0, symName: __ZNSt3__122__compressed_pair_elemIPcLi0ELb0EE5__getB8ue170006Ev, symObjAddr: 0x3434, symBinAddr: 0x1000049E4, symSize: 0x14 }
  - { offsetInCU: 0x14480, offset: 0x14480, size: 0x8, addend: 0x0, symName: __ZNKSt3__16vectorIcNS_9allocatorIcEEE31__annotate_contiguous_containerB8ue170006EPKvS5_S5_S5_, symObjAddr: 0x3448, symBinAddr: 0x1000049F8, symSize: 0x20 }
  - { offsetInCU: 0x144D6, offset: 0x144D6, size: 0x8, addend: 0x0, symName: __ZNKSt3__16vectorIcNS_9allocatorIcEEE4dataB8ue170006Ev, symObjAddr: 0x3468, symBinAddr: 0x100004A18, symSize: 0x28 }
  - { offsetInCU: 0x144FC, offset: 0x144FC, size: 0x8, addend: 0x0, symName: __ZNKSt3__16vectorIcNS_9allocatorIcEEE8capacityB8ue170006Ev, symObjAddr: 0x3490, symBinAddr: 0x100004A40, symSize: 0x38 }
  - { offsetInCU: 0x14522, offset: 0x14522, size: 0x8, addend: 0x0, symName: __ZNKSt3__16vectorIcNS_9allocatorIcEEE9__end_capB8ue170006Ev, symObjAddr: 0x34DC, symBinAddr: 0x100004A8C, symSize: 0x28 }
  - { offsetInCU: 0x14548, offset: 0x14548, size: 0x8, addend: 0x0, symName: __ZNKSt3__117__compressed_pairIPcNS_9allocatorIcEEE5firstB8ue170006Ev, symObjAddr: 0x3504, symBinAddr: 0x100004AB4, symSize: 0x24 }
  - { offsetInCU: 0x1456E, offset: 0x1456E, size: 0x8, addend: 0x0, symName: __ZNKSt3__122__compressed_pair_elemIPcLi0ELb0EE5__getB8ue170006Ev, symObjAddr: 0x3528, symBinAddr: 0x100004AD8, symSize: 0x14 }
  - { offsetInCU: 0x145B0, offset: 0x145B0, size: 0x8, addend: 0x0, symName: __ZNSt3__16vectorIcNS_9allocatorIcEEE21_ConstructTransactionC1B8ue170006ERS3_m, symObjAddr: 0x353C, symBinAddr: 0x100004AEC, symSize: 0x3C }
  - { offsetInCU: 0x145F8, offset: 0x145F8, size: 0x8, addend: 0x0, symName: __ZNSt3__16vectorIcNS_9allocatorIcEEE21_ConstructTransactionD1B8ue170006Ev, symObjAddr: 0x35F8, symBinAddr: 0x100004BA8, symSize: 0x2C }
  - { offsetInCU: 0x14622, offset: 0x14622, size: 0x8, addend: 0x0, symName: __ZNSt3__16vectorIcNS_9allocatorIcEEE21_ConstructTransactionC2B8ue170006ERS3_m, symObjAddr: 0x3624, symBinAddr: 0x100004BD4, symSize: 0x44 }
  - { offsetInCU: 0x1468D, offset: 0x1468D, size: 0x8, addend: 0x0, symName: __ZNSt3__14pairIPKcS2_EC1B8ue170006IS2_S2_LPv0EEEOT_OT0_, symObjAddr: 0x37BC, symBinAddr: 0x100004D6C, symSize: 0x3C }
  - { offsetInCU: 0x146EB, offset: 0x146EB, size: 0x8, addend: 0x0, symName: __ZNSt3__14pairIPKcS2_EC2B8ue170006IS2_S2_LPv0EEEOT_OT0_, symObjAddr: 0x37F8, symBinAddr: 0x100004DA8, symSize: 0x34 }
  - { offsetInCU: 0x14749, offset: 0x14749, size: 0x8, addend: 0x0, symName: __ZNSt3__118__unwrap_iter_implIPKcLb1EE8__unwrapB8ue170006ES2_, symObjAddr: 0x382C, symBinAddr: 0x100004DDC, symSize: 0x24 }
  - { offsetInCU: 0x14794, offset: 0x14794, size: 0x8, addend: 0x0, symName: __ZNKSt3__114__copy_trivialclB8ue170006IKccLi0EEENS_4pairIPT_PT0_EES5_S5_S7_, symObjAddr: 0x39E0, symBinAddr: 0x100004F90, symSize: 0x48 }
  - { offsetInCU: 0x14808, offset: 0x14808, size: 0x8, addend: 0x0, symName: __ZNSt3__14pairIPKcPcEC1B8ue170006IRS2_S3_LPv0EEEOT_OT0_, symObjAddr: 0x3BA0, symBinAddr: 0x100005150, symSize: 0x3C }
  - { offsetInCU: 0x14866, offset: 0x14866, size: 0x8, addend: 0x0, symName: __ZNSt3__14pairIPKcPcEC2B8ue170006IRS2_S3_LPv0EEEOT_OT0_, symObjAddr: 0x3BDC, symBinAddr: 0x10000518C, symSize: 0x34 }
  - { offsetInCU: 0x148C4, offset: 0x148C4, size: 0x8, addend: 0x0, symName: __ZNSt3__14pairIPKcPcEC1B8ue170006IS2_S3_LPv0EEEOT_OT0_, symObjAddr: 0x3C10, symBinAddr: 0x1000051C0, symSize: 0x3C }
  - { offsetInCU: 0x14922, offset: 0x14922, size: 0x8, addend: 0x0, symName: __ZNSt3__14pairIPKcPcEC2B8ue170006IS2_S3_LPv0EEEOT_OT0_, symObjAddr: 0x3C4C, symBinAddr: 0x1000051FC, symSize: 0x34 }
  - { offsetInCU: 0x14980, offset: 0x14980, size: 0x8, addend: 0x0, symName: __ZNSt3__118__unwrap_iter_implIPKcLb1EE8__rewrapB8ue170006ES2_S2_, symObjAddr: 0x3CBC, symBinAddr: 0x10000526C, symSize: 0x48 }
  - { offsetInCU: 0x149B1, offset: 0x149B1, size: 0x8, addend: 0x0, symName: __ZNSt3__118__unwrap_iter_implIPcLb1EE8__unwrapB8ue170006ES1_, symObjAddr: 0x3D04, symBinAddr: 0x1000052B4, symSize: 0x24 }
  - { offsetInCU: 0x149D4, offset: 0x149D4, size: 0x8, addend: 0x0, symName: __ZNSt3__118__unwrap_iter_implIPcLb1EE8__rewrapB8ue170006ES1_S1_, symObjAddr: 0x3D28, symBinAddr: 0x1000052D8, symSize: 0x48 }
  - { offsetInCU: 0x14A05, offset: 0x14A05, size: 0x8, addend: 0x0, symName: __ZNSt3__16vectorIcNS_9allocatorIcEEE21_ConstructTransactionD2B8ue170006Ev, symObjAddr: 0x3D70, symBinAddr: 0x100005320, symSize: 0x20 }
  - { offsetInCU: 0x14A2F, offset: 0x14A2F, size: 0x8, addend: 0x0, symName: __ZNSt3__128__exception_guard_exceptionsINS_6vectorIcNS_9allocatorIcEEE16__destroy_vectorEED2B8ue170006Ev, symObjAddr: 0x3D90, symBinAddr: 0x100005340, symSize: 0x50 }
  - { offsetInCU: 0x14A59, offset: 0x14A59, size: 0x8, addend: 0x0, symName: __ZNSt3__16vectorIcNS_9allocatorIcEEE16__destroy_vectorclB8ue170006Ev, symObjAddr: 0x3DE0, symBinAddr: 0x100005390, symSize: 0x90 }
  - { offsetInCU: 0x14A7F, offset: 0x14A7F, size: 0x8, addend: 0x0, symName: __ZNSt3__16vectorIcNS_9allocatorIcEEE7__clearB8ue170006Ev, symObjAddr: 0x3E70, symBinAddr: 0x100005420, symSize: 0x28 }
  - { offsetInCU: 0x14AA5, offset: 0x14AA5, size: 0x8, addend: 0x0, symName: __ZNKSt3__16vectorIcNS_9allocatorIcEEE17__annotate_deleteB8ue170006Ev, symObjAddr: 0x3E98, symBinAddr: 0x100005448, symSize: 0xB8 }
  - { offsetInCU: 0x14ACB, offset: 0x14ACB, size: 0x8, addend: 0x0, symName: __ZNSt3__116allocator_traitsINS_9allocatorIcEEE10deallocateB8ue170006ERS2_Pcm, symObjAddr: 0x3F50, symBinAddr: 0x100005500, symSize: 0x34 }
  - { offsetInCU: 0x14B0D, offset: 0x14B0D, size: 0x8, addend: 0x0, symName: __ZNSt3__16vectorIcNS_9allocatorIcEEE22__base_destruct_at_endB8ue170006EPc, symObjAddr: 0x3F84, symBinAddr: 0x100005534, symSize: 0x8C }
  - { offsetInCU: 0x14B51, offset: 0x14B51, size: 0x8, addend: 0x0, symName: __ZNSt3__116allocator_traitsINS_9allocatorIcEEE7destroyB8ue170006IcvEEvRS2_PT_, symObjAddr: 0x4010, symBinAddr: 0x1000055C0, symSize: 0x2C }
  - { offsetInCU: 0x14B8E, offset: 0x14B8E, size: 0x8, addend: 0x0, symName: __ZNSt3__19allocatorIcE7destroyB8ue170006EPc, symObjAddr: 0x403C, symBinAddr: 0x1000055EC, symSize: 0x14 }
  - { offsetInCU: 0x14BC2, offset: 0x14BC2, size: 0x8, addend: 0x0, symName: __ZNKSt3__16vectorIcNS_9allocatorIcEEE4sizeB8ue170006Ev, symObjAddr: 0x4050, symBinAddr: 0x100005600, symSize: 0x20 }
  - { offsetInCU: 0x14BE8, offset: 0x14BE8, size: 0x8, addend: 0x0, symName: __ZNSt3__19allocatorIcE10deallocateB8ue170006EPcm, symObjAddr: 0x4070, symBinAddr: 0x100005620, symSize: 0x40 }
  - { offsetInCU: 0x14C3B, offset: 0x14C3B, size: 0x8, addend: 0x0, symName: __ZZN19Password_Validator28is_validENSt3__112basic_stringIcNS0_11char_traitsIcEENS0_9allocatorIcEEEEENKUlcE_clEc, symObjAddr: 0x4250, symBinAddr: 0x100005800, symSize: 0x64 }
  - { offsetInCU: 0x14C9E, offset: 0x14C9E, size: 0x8, addend: 0x0, symName: __ZNSt3__16vectorIcNS_9allocatorIcEEE5beginB8ue170006Ev, symObjAddr: 0x4350, symBinAddr: 0x100005900, symSize: 0x30 }
  - { offsetInCU: 0x14CC6, offset: 0x14CC6, size: 0x8, addend: 0x0, symName: __ZNSt3__16vectorIcNS_9allocatorIcEEE3endB8ue170006Ev, symObjAddr: 0x4380, symBinAddr: 0x100005930, symSize: 0x30 }
  - { offsetInCU: 0x14CF9, offset: 0x14CF9, size: 0x8, addend: 0x0, symName: __ZZZN19Password_Validator28is_validENSt3__112basic_stringIcNS0_11char_traitsIcEENS0_9allocatorIcEEEEENKUlcE_clEcENKUlcE_clEc, symObjAddr: 0x43B0, symBinAddr: 0x100005960, symSize: 0x2C }
  - { offsetInCU: 0x14D31, offset: 0x14D31, size: 0x8, addend: 0x0, symName: __ZNSt3__16vectorIcNS_9allocatorIcEEE11__make_iterB8ue170006EPc, symObjAddr: 0x43DC, symBinAddr: 0x10000598C, symSize: 0x30 }
  - { offsetInCU: 0x14D66, offset: 0x14D66, size: 0x8, addend: 0x0, symName: __ZN19Password_Validator2D2Ev, symObjAddr: 0x440C, symBinAddr: 0x1000059BC, symSize: 0x2C }
  - { offsetInCU: 0x14D92, offset: 0x14D92, size: 0x8, addend: 0x0, symName: __ZNSt3__16vectorIcNS_9allocatorIcEEED1B8ue170006Ev, symObjAddr: 0x4438, symBinAddr: 0x1000059E8, symSize: 0x2C }
  - { offsetInCU: 0x14DBC, offset: 0x14DBC, size: 0x8, addend: 0x0, symName: __ZNSt3__16vectorIcNS_9allocatorIcEEED2B8ue170006Ev, symObjAddr: 0x4464, symBinAddr: 0x100005A14, symSize: 0x40 }
  - { offsetInCU: 0x14DE6, offset: 0x14DE6, size: 0x8, addend: 0x0, symName: __ZNSt3__111char_traitsIcE6lengthB8ue170006EPKc, symObjAddr: 0x4690, symBinAddr: 0x100005C40, symSize: 0x34 }
  - { offsetInCU: 0x14E2C, offset: 0x14E2C, size: 0x8, addend: 0x0, symName: __ZNKSt3__113basic_ostreamIcNS_11char_traitsIcEEE6sentrycvbB8ue170006Ev, symObjAddr: 0x46C4, symBinAddr: 0x100005C74, symSize: 0x1C }
  - { offsetInCU: 0x14E52, offset: 0x14E52, size: 0x8, addend: 0x0, symName: __ZNSt3__119ostreambuf_iteratorIcNS_11char_traitsIcEEEC1B8ue170006ERNS_13basic_ostreamIcS2_EE, symObjAddr: 0x4920, symBinAddr: 0x100005ED0, symSize: 0x34 }
  - { offsetInCU: 0x14E8A, offset: 0x14E8A, size: 0x8, addend: 0x0, symName: __ZNKSt3__18ios_base5flagsB8ue170006Ev, symObjAddr: 0x4954, symBinAddr: 0x100005F04, symSize: 0x18 }
  - { offsetInCU: 0x14EB2, offset: 0x14EB2, size: 0x8, addend: 0x0, symName: __ZNKSt3__19basic_iosIcNS_11char_traitsIcEEE4fillB8ue170006Ev, symObjAddr: 0x496C, symBinAddr: 0x100005F1C, symSize: 0x64 }
  - { offsetInCU: 0x14EDA, offset: 0x14EDA, size: 0x8, addend: 0x0, symName: __ZNKSt3__119ostreambuf_iteratorIcNS_11char_traitsIcEEE6failedB8ue170006Ev, symObjAddr: 0x49D0, symBinAddr: 0x100005F80, symSize: 0x24 }
  - { offsetInCU: 0x14F00, offset: 0x14F00, size: 0x8, addend: 0x0, symName: __ZNSt3__19basic_iosIcNS_11char_traitsIcEEE8setstateB8ue170006Ej, symObjAddr: 0x49F4, symBinAddr: 0x100005FA4, symSize: 0x2C }
  - { offsetInCU: 0x14F35, offset: 0x14F35, size: 0x8, addend: 0x0, symName: __ZNKSt3__18ios_base5widthB8ue170006Ev, symObjAddr: 0x4A20, symBinAddr: 0x100005FD0, symSize: 0x18 }
  - { offsetInCU: 0x14F5D, offset: 0x14F5D, size: 0x8, addend: 0x0, symName: __ZNSt3__115basic_streambufIcNS_11char_traitsIcEEE5sputnB8ue170006EPKcl, symObjAddr: 0x4A38, symBinAddr: 0x100005FE8, symSize: 0x3C }
  - { offsetInCU: 0x14F9F, offset: 0x14F9F, size: 0x8, addend: 0x0, symName: __ZNSt3__112basic_stringIcNS_11char_traitsIcEENS_9allocatorIcEEEC1B8ue170006Emc, symObjAddr: 0x4A74, symBinAddr: 0x100006024, symSize: 0x3C }
  - { offsetInCU: 0x14FE7, offset: 0x14FE7, size: 0x8, addend: 0x0, symName: __ZNSt3__112basic_stringIcNS_11char_traitsIcEENS_9allocatorIcEEE4dataB8ue170006Ev, symObjAddr: 0x4AB0, symBinAddr: 0x100006060, symSize: 0x28 }
  - { offsetInCU: 0x1500D, offset: 0x1500D, size: 0x8, addend: 0x0, symName: __ZNSt3__18ios_base5widthB8ue170006El, symObjAddr: 0x4AD8, symBinAddr: 0x100006088, symSize: 0x2C }
  - { offsetInCU: 0x15053, offset: 0x15053, size: 0x8, addend: 0x0, symName: __ZNSt3__112basic_stringIcNS_11char_traitsIcEENS_9allocatorIcEEEC2B8ue170006Emc, symObjAddr: 0x4B04, symBinAddr: 0x1000060B4, symSize: 0x4C }
  - { offsetInCU: 0x1509B, offset: 0x1509B, size: 0x8, addend: 0x0, symName: __ZNSt3__117__compressed_pairINS_12basic_stringIcNS_11char_traitsIcEENS_9allocatorIcEEE5__repES5_EC1B8ue170006INS_18__default_init_tagESA_EEOT_OT0_, symObjAddr: 0x4B50, symBinAddr: 0x100006100, symSize: 0x3C }
  - { offsetInCU: 0x150F3, offset: 0x150F3, size: 0x8, addend: 0x0, symName: __ZNSt3__117__compressed_pairINS_12basic_stringIcNS_11char_traitsIcEENS_9allocatorIcEEE5__repES5_EC2B8ue170006INS_18__default_init_tagESA_EEOT_OT0_, symObjAddr: 0x4B8C, symBinAddr: 0x10000613C, symSize: 0x3C }
  - { offsetInCU: 0x1514B, offset: 0x1514B, size: 0x8, addend: 0x0, symName: __ZNSt3__122__compressed_pair_elemINS_12basic_stringIcNS_11char_traitsIcEENS_9allocatorIcEEE5__repELi0ELb0EEC2B8ue170006ENS_18__default_init_tagE, symObjAddr: 0x4BC8, symBinAddr: 0x100006178, symSize: 0x14 }
  - { offsetInCU: 0x15180, offset: 0x15180, size: 0x8, addend: 0x0, symName: __ZNSt3__119ostreambuf_iteratorIcNS_11char_traitsIcEEEC2B8ue170006ERNS_13basic_ostreamIcS2_EE, symObjAddr: 0x4BDC, symBinAddr: 0x10000618C, symSize: 0x54 }
  - { offsetInCU: 0x151B8, offset: 0x151B8, size: 0x8, addend: 0x0, symName: __ZNKSt3__19basic_iosIcNS_11char_traitsIcEEE5rdbufB8ue170006Ev, symObjAddr: 0x4C30, symBinAddr: 0x1000061E0, symSize: 0x24 }
  - { offsetInCU: 0x151E0, offset: 0x151E0, size: 0x8, addend: 0x0, symName: __ZNKSt3__18ios_base5rdbufB8ue170006Ev, symObjAddr: 0x4C54, symBinAddr: 0x100006204, symSize: 0x18 }
  - { offsetInCU: 0x15206, offset: 0x15206, size: 0x8, addend: 0x0, symName: __ZNSt3__111char_traitsIcE11eq_int_typeB8ue170006Eii, symObjAddr: 0x4C6C, symBinAddr: 0x10000621C, symSize: 0x28 }
  - { offsetInCU: 0x15239, offset: 0x15239, size: 0x8, addend: 0x0, symName: __ZNSt3__111char_traitsIcE3eofB8ue170006Ev, symObjAddr: 0x4C94, symBinAddr: 0x100006244, symSize: 0x8 }
  - { offsetInCU: 0x1524D, offset: 0x1524D, size: 0x8, addend: 0x0, symName: __ZNKSt3__19basic_iosIcNS_11char_traitsIcEEE5widenB8ue170006Ec, symObjAddr: 0x4C9C, symBinAddr: 0x10000624C, symSize: 0x84 }
  - { offsetInCU: 0x152BD, offset: 0x152BD, size: 0x8, addend: 0x0, symName: __ZNKSt3__15ctypeIcE5widenB8ue170006Ec, symObjAddr: 0x4D4C, symBinAddr: 0x1000062FC, symSize: 0x38 }
  - { offsetInCU: 0x152F2, offset: 0x152F2, size: 0x8, addend: 0x0, symName: __ZNSt3__18ios_base8setstateB8ue170006Ej, symObjAddr: 0x4D84, symBinAddr: 0x100006334, symSize: 0x34 }
  - { offsetInCU: 0x15329, offset: 0x15329, size: 0x8, addend: 0x0, symName: __ZNSt3__16vectorIiNS_9allocatorIiEEEC2B8ue170006ESt16initializer_listIiE, symObjAddr: 0x4DDC, symBinAddr: 0x10000638C, symSize: 0x120 }
  - { offsetInCU: 0x15379, offset: 0x15379, size: 0x8, addend: 0x0, symName: __ZNSt3__117__compressed_pairIPiNS_9allocatorIiEEEC1B8ue170006IDnNS_18__default_init_tagEEEOT_OT0_, symObjAddr: 0x4EFC, symBinAddr: 0x1000064AC, symSize: 0x3C }
  - { offsetInCU: 0x153D1, offset: 0x153D1, size: 0x8, addend: 0x0, symName: __ZNSt3__16vectorIiNS_9allocatorIiEEE16__destroy_vectorC1B8ue170006ERS3_, symObjAddr: 0x4F78, symBinAddr: 0x100006528, symSize: 0x34 }
  - { offsetInCU: 0x1540A, offset: 0x1540A, size: 0x8, addend: 0x0, symName: __ZNKSt16initializer_listIiE4sizeB8ue170006Ev, symObjAddr: 0x4FAC, symBinAddr: 0x10000655C, symSize: 0x18 }
  - { offsetInCU: 0x15430, offset: 0x15430, size: 0x8, addend: 0x0, symName: __ZNSt3__16vectorIiNS_9allocatorIiEEE11__vallocateB8ue170006Em, symObjAddr: 0x4FC4, symBinAddr: 0x100006574, symSize: 0xAC }
  - { offsetInCU: 0x15474, offset: 0x15474, size: 0x8, addend: 0x0, symName: __ZNSt3__16vectorIiNS_9allocatorIiEEE18__construct_at_endIPKiS6_EEvT_T0_m, symObjAddr: 0x5070, symBinAddr: 0x100006620, symSize: 0x8C }
  - { offsetInCU: 0x154EA, offset: 0x154EA, size: 0x8, addend: 0x0, symName: __ZNKSt16initializer_listIiE5beginB8ue170006Ev, symObjAddr: 0x50FC, symBinAddr: 0x1000066AC, symSize: 0x18 }
  - { offsetInCU: 0x15510, offset: 0x15510, size: 0x8, addend: 0x0, symName: __ZNKSt16initializer_listIiE3endB8ue170006Ev, symObjAddr: 0x5114, symBinAddr: 0x1000066C4, symSize: 0x20 }
  - { offsetInCU: 0x15536, offset: 0x15536, size: 0x8, addend: 0x0, symName: __ZNSt3__128__exception_guard_exceptionsINS_6vectorIiNS_9allocatorIiEEE16__destroy_vectorEE10__completeB8ue170006Ev, symObjAddr: 0x5134, symBinAddr: 0x1000066E4, symSize: 0x1C }
  - { offsetInCU: 0x1555C, offset: 0x1555C, size: 0x8, addend: 0x0, symName: __ZNSt3__128__exception_guard_exceptionsINS_6vectorIiNS_9allocatorIiEEE16__destroy_vectorEED1B8ue170006Ev, symObjAddr: 0x5150, symBinAddr: 0x100006700, symSize: 0x2C }
  - { offsetInCU: 0x15586, offset: 0x15586, size: 0x8, addend: 0x0, symName: __ZNSt3__117__compressed_pairIPiNS_9allocatorIiEEEC2B8ue170006IDnNS_18__default_init_tagEEEOT_OT0_, symObjAddr: 0x517C, symBinAddr: 0x10000672C, symSize: 0x40 }
  - { offsetInCU: 0x155DE, offset: 0x155DE, size: 0x8, addend: 0x0, symName: __ZNSt3__122__compressed_pair_elemIPiLi0ELb0EEC2B8ue170006IDnvEEOT_, symObjAddr: 0x51BC, symBinAddr: 0x10000676C, symSize: 0x1C }
  - { offsetInCU: 0x15620, offset: 0x15620, size: 0x8, addend: 0x0, symName: __ZNSt3__122__compressed_pair_elemINS_9allocatorIiEELi1ELb1EEC2B8ue170006ENS_18__default_init_tagE, symObjAddr: 0x51D8, symBinAddr: 0x100006788, symSize: 0x2C }
  - { offsetInCU: 0x15655, offset: 0x15655, size: 0x8, addend: 0x0, symName: __ZNSt3__19allocatorIiEC2B8ue170006Ev, symObjAddr: 0x5204, symBinAddr: 0x1000067B4, symSize: 0x2C }
  - { offsetInCU: 0x1567F, offset: 0x1567F, size: 0x8, addend: 0x0, symName: __ZNSt3__116__non_trivial_ifILb1ENS_9allocatorIiEEEC2B8ue170006Ev, symObjAddr: 0x5230, symBinAddr: 0x1000067E0, symSize: 0x14 }
  - { offsetInCU: 0x156A9, offset: 0x156A9, size: 0x8, addend: 0x0, symName: __ZNSt3__128__exception_guard_exceptionsINS_6vectorIiNS_9allocatorIiEEE16__destroy_vectorEEC1B8ue170006ES5_, symObjAddr: 0x5244, symBinAddr: 0x1000067F4, symSize: 0x34 }
  - { offsetInCU: 0x156E1, offset: 0x156E1, size: 0x8, addend: 0x0, symName: __ZNSt3__128__exception_guard_exceptionsINS_6vectorIiNS_9allocatorIiEEE16__destroy_vectorEEC2B8ue170006ES5_, symObjAddr: 0x5278, symBinAddr: 0x100006828, symSize: 0x24 }
  - { offsetInCU: 0x15719, offset: 0x15719, size: 0x8, addend: 0x0, symName: __ZNSt3__16vectorIiNS_9allocatorIiEEE16__destroy_vectorC2B8ue170006ERS3_, symObjAddr: 0x529C, symBinAddr: 0x10000684C, symSize: 0x20 }
  - { offsetInCU: 0x15752, offset: 0x15752, size: 0x8, addend: 0x0, symName: __ZNKSt3__16vectorIiNS_9allocatorIiEEE8max_sizeEv, symObjAddr: 0x52BC, symBinAddr: 0x10000686C, symSize: 0x60 }
  - { offsetInCU: 0x1577A, offset: 0x1577A, size: 0x8, addend: 0x0, symName: __ZNKSt3__16vectorIiNS_9allocatorIiEEE20__throw_length_errorB8ue170006Ev, symObjAddr: 0x531C, symBinAddr: 0x1000068CC, symSize: 0x1C }
  - { offsetInCU: 0x157A0, offset: 0x157A0, size: 0x8, addend: 0x0, symName: __ZNSt3__16vectorIiNS_9allocatorIiEEE7__allocB8ue170006Ev, symObjAddr: 0x5378, symBinAddr: 0x100006928, symSize: 0x28 }
  - { offsetInCU: 0x157C6, offset: 0x157C6, size: 0x8, addend: 0x0, symName: __ZNSt3__16vectorIiNS_9allocatorIiEEE9__end_capB8ue170006Ev, symObjAddr: 0x53A0, symBinAddr: 0x100006950, symSize: 0x28 }
  - { offsetInCU: 0x157EC, offset: 0x157EC, size: 0x8, addend: 0x0, symName: __ZNKSt3__16vectorIiNS_9allocatorIiEEE14__annotate_newB8ue170006Em, symObjAddr: 0x53C8, symBinAddr: 0x100006978, symSize: 0xAC }
  - { offsetInCU: 0x1582C, offset: 0x1582C, size: 0x8, addend: 0x0, symName: __ZNSt3__116allocator_traitsINS_9allocatorIiEEE8max_sizeB8ue170006IS2_vEEmRKS2_, symObjAddr: 0x5474, symBinAddr: 0x100006A24, symSize: 0x24 }
  - { offsetInCU: 0x1585A, offset: 0x1585A, size: 0x8, addend: 0x0, symName: __ZNKSt3__16vectorIiNS_9allocatorIiEEE7__allocB8ue170006Ev, symObjAddr: 0x5498, symBinAddr: 0x100006A48, symSize: 0x28 }
  - { offsetInCU: 0x15880, offset: 0x15880, size: 0x8, addend: 0x0, symName: __ZNKSt3__19allocatorIiE8max_sizeB8ue170006Ev, symObjAddr: 0x54C0, symBinAddr: 0x100006A70, symSize: 0x14 }
  - { offsetInCU: 0x158A6, offset: 0x158A6, size: 0x8, addend: 0x0, symName: __ZNKSt3__117__compressed_pairIPiNS_9allocatorIiEEE6secondB8ue170006Ev, symObjAddr: 0x54D4, symBinAddr: 0x100006A84, symSize: 0x24 }
  - { offsetInCU: 0x158CC, offset: 0x158CC, size: 0x8, addend: 0x0, symName: __ZNKSt3__122__compressed_pair_elemINS_9allocatorIiEELi1ELb1EE5__getB8ue170006Ev, symObjAddr: 0x54F8, symBinAddr: 0x100006AA8, symSize: 0x14 }
  - { offsetInCU: 0x158F2, offset: 0x158F2, size: 0x8, addend: 0x0, symName: __ZNSt3__19allocatorIiE8allocateB8ue170006Em, symObjAddr: 0x550C, symBinAddr: 0x100006ABC, symSize: 0x58 }
  - { offsetInCU: 0x15926, offset: 0x15926, size: 0x8, addend: 0x0, symName: __ZNSt3__117__compressed_pairIPiNS_9allocatorIiEEE6secondB8ue170006Ev, symObjAddr: 0x5564, symBinAddr: 0x100006B14, symSize: 0x24 }
  - { offsetInCU: 0x1594C, offset: 0x1594C, size: 0x8, addend: 0x0, symName: __ZNSt3__122__compressed_pair_elemINS_9allocatorIiEELi1ELb1EE5__getB8ue170006Ev, symObjAddr: 0x5588, symBinAddr: 0x100006B38, symSize: 0x14 }
  - { offsetInCU: 0x15972, offset: 0x15972, size: 0x8, addend: 0x0, symName: __ZNSt3__117__compressed_pairIPiNS_9allocatorIiEEE5firstB8ue170006Ev, symObjAddr: 0x559C, symBinAddr: 0x100006B4C, symSize: 0x24 }
  - { offsetInCU: 0x15998, offset: 0x15998, size: 0x8, addend: 0x0, symName: __ZNSt3__122__compressed_pair_elemIPiLi0ELb0EE5__getB8ue170006Ev, symObjAddr: 0x55C0, symBinAddr: 0x100006B70, symSize: 0x14 }
  - { offsetInCU: 0x159BE, offset: 0x159BE, size: 0x8, addend: 0x0, symName: __ZNKSt3__16vectorIiNS_9allocatorIiEEE31__annotate_contiguous_containerB8ue170006EPKvS5_S5_S5_, symObjAddr: 0x55D4, symBinAddr: 0x100006B84, symSize: 0x20 }
  - { offsetInCU: 0x15A14, offset: 0x15A14, size: 0x8, addend: 0x0, symName: __ZNKSt3__16vectorIiNS_9allocatorIiEEE4dataB8ue170006Ev, symObjAddr: 0x55F4, symBinAddr: 0x100006BA4, symSize: 0x28 }
  - { offsetInCU: 0x15A3A, offset: 0x15A3A, size: 0x8, addend: 0x0, symName: __ZNKSt3__16vectorIiNS_9allocatorIiEEE8capacityB8ue170006Ev, symObjAddr: 0x561C, symBinAddr: 0x100006BCC, symSize: 0x40 }
  - { offsetInCU: 0x15A60, offset: 0x15A60, size: 0x8, addend: 0x0, symName: __ZNKSt3__16vectorIiNS_9allocatorIiEEE9__end_capB8ue170006Ev, symObjAddr: 0x5670, symBinAddr: 0x100006C20, symSize: 0x28 }
  - { offsetInCU: 0x15A86, offset: 0x15A86, size: 0x8, addend: 0x0, symName: __ZNKSt3__117__compressed_pairIPiNS_9allocatorIiEEE5firstB8ue170006Ev, symObjAddr: 0x5698, symBinAddr: 0x100006C48, symSize: 0x24 }
  - { offsetInCU: 0x15AAC, offset: 0x15AAC, size: 0x8, addend: 0x0, symName: __ZNKSt3__122__compressed_pair_elemIPiLi0ELb0EE5__getB8ue170006Ev, symObjAddr: 0x56BC, symBinAddr: 0x100006C6C, symSize: 0x14 }
  - { offsetInCU: 0x15AEE, offset: 0x15AEE, size: 0x8, addend: 0x0, symName: __ZNSt3__16vectorIiNS_9allocatorIiEEE21_ConstructTransactionC1B8ue170006ERS3_m, symObjAddr: 0x56D0, symBinAddr: 0x100006C80, symSize: 0x3C }
  - { offsetInCU: 0x15B36, offset: 0x15B36, size: 0x8, addend: 0x0, symName: __ZNSt3__16vectorIiNS_9allocatorIiEEE21_ConstructTransactionD1B8ue170006Ev, symObjAddr: 0x578C, symBinAddr: 0x100006D3C, symSize: 0x2C }
  - { offsetInCU: 0x15B60, offset: 0x15B60, size: 0x8, addend: 0x0, symName: __ZNSt3__16vectorIiNS_9allocatorIiEEE21_ConstructTransactionC2B8ue170006ERS3_m, symObjAddr: 0x57B8, symBinAddr: 0x100006D68, symSize: 0x44 }
  - { offsetInCU: 0x15BCB, offset: 0x15BCB, size: 0x8, addend: 0x0, symName: __ZNSt3__14pairIPKiS2_EC1B8ue170006IS2_S2_LPv0EEEOT_OT0_, symObjAddr: 0x5950, symBinAddr: 0x100006F00, symSize: 0x3C }
  - { offsetInCU: 0x15C29, offset: 0x15C29, size: 0x8, addend: 0x0, symName: __ZNSt3__14pairIPKiS2_EC2B8ue170006IS2_S2_LPv0EEEOT_OT0_, symObjAddr: 0x598C, symBinAddr: 0x100006F3C, symSize: 0x34 }
  - { offsetInCU: 0x15C87, offset: 0x15C87, size: 0x8, addend: 0x0, symName: __ZNSt3__118__unwrap_iter_implIPKiLb1EE8__unwrapB8ue170006ES2_, symObjAddr: 0x59C0, symBinAddr: 0x100006F70, symSize: 0x24 }
  - { offsetInCU: 0x15CC7, offset: 0x15CC7, size: 0x8, addend: 0x0, symName: __ZNKSt3__114__copy_trivialclB8ue170006IKiiLi0EEENS_4pairIPT_PT0_EES5_S5_S7_, symObjAddr: 0x5B74, symBinAddr: 0x100007124, symSize: 0x48 }
  - { offsetInCU: 0x15D3B, offset: 0x15D3B, size: 0x8, addend: 0x0, symName: __ZNSt3__14pairIPKiPiEC1B8ue170006IRS2_S3_LPv0EEEOT_OT0_, symObjAddr: 0x5D3C, symBinAddr: 0x1000072EC, symSize: 0x3C }
  - { offsetInCU: 0x15D99, offset: 0x15D99, size: 0x8, addend: 0x0, symName: __ZNSt3__14pairIPKiPiEC2B8ue170006IRS2_S3_LPv0EEEOT_OT0_, symObjAddr: 0x5D78, symBinAddr: 0x100007328, symSize: 0x34 }
  - { offsetInCU: 0x15DF7, offset: 0x15DF7, size: 0x8, addend: 0x0, symName: __ZNSt3__14pairIPKiPiEC1B8ue170006IS2_S3_LPv0EEEOT_OT0_, symObjAddr: 0x5DAC, symBinAddr: 0x10000735C, symSize: 0x3C }
  - { offsetInCU: 0x15E55, offset: 0x15E55, size: 0x8, addend: 0x0, symName: __ZNSt3__14pairIPKiPiEC2B8ue170006IS2_S3_LPv0EEEOT_OT0_, symObjAddr: 0x5DE8, symBinAddr: 0x100007398, symSize: 0x34 }
  - { offsetInCU: 0x15EB3, offset: 0x15EB3, size: 0x8, addend: 0x0, symName: __ZNSt3__118__unwrap_iter_implIPKiLb1EE8__rewrapB8ue170006ES2_S2_, symObjAddr: 0x5E58, symBinAddr: 0x100007408, symSize: 0x50 }
  - { offsetInCU: 0x15EE4, offset: 0x15EE4, size: 0x8, addend: 0x0, symName: __ZNSt3__118__unwrap_iter_implIPiLb1EE8__unwrapB8ue170006ES1_, symObjAddr: 0x5EA8, symBinAddr: 0x100007458, symSize: 0x24 }
  - { offsetInCU: 0x15F07, offset: 0x15F07, size: 0x8, addend: 0x0, symName: __ZNSt3__118__unwrap_iter_implIPiLb1EE8__rewrapB8ue170006ES1_S1_, symObjAddr: 0x5ECC, symBinAddr: 0x10000747C, symSize: 0x50 }
  - { offsetInCU: 0x15F38, offset: 0x15F38, size: 0x8, addend: 0x0, symName: __ZNSt3__16vectorIiNS_9allocatorIiEEE21_ConstructTransactionD2B8ue170006Ev, symObjAddr: 0x5F1C, symBinAddr: 0x1000074CC, symSize: 0x20 }
  - { offsetInCU: 0x15F62, offset: 0x15F62, size: 0x8, addend: 0x0, symName: __ZNSt3__128__exception_guard_exceptionsINS_6vectorIiNS_9allocatorIiEEE16__destroy_vectorEED2B8ue170006Ev, symObjAddr: 0x5F3C, symBinAddr: 0x1000074EC, symSize: 0x50 }
  - { offsetInCU: 0x15F8C, offset: 0x15F8C, size: 0x8, addend: 0x0, symName: __ZNSt3__16vectorIiNS_9allocatorIiEEE16__destroy_vectorclB8ue170006Ev, symObjAddr: 0x5F8C, symBinAddr: 0x10000753C, symSize: 0x90 }
  - { offsetInCU: 0x15FB2, offset: 0x15FB2, size: 0x8, addend: 0x0, symName: __ZNSt3__16vectorIiNS_9allocatorIiEEE7__clearB8ue170006Ev, symObjAddr: 0x601C, symBinAddr: 0x1000075CC, symSize: 0x28 }
  - { offsetInCU: 0x15FD8, offset: 0x15FD8, size: 0x8, addend: 0x0, symName: __ZNKSt3__16vectorIiNS_9allocatorIiEEE17__annotate_deleteB8ue170006Ev, symObjAddr: 0x6044, symBinAddr: 0x1000075F4, symSize: 0xB8 }
  - { offsetInCU: 0x15FFE, offset: 0x15FFE, size: 0x8, addend: 0x0, symName: __ZNSt3__116allocator_traitsINS_9allocatorIiEEE10deallocateB8ue170006ERS2_Pim, symObjAddr: 0x60FC, symBinAddr: 0x1000076AC, symSize: 0x34 }
  - { offsetInCU: 0x16040, offset: 0x16040, size: 0x8, addend: 0x0, symName: __ZNSt3__16vectorIiNS_9allocatorIiEEE22__base_destruct_at_endB8ue170006EPi, symObjAddr: 0x6130, symBinAddr: 0x1000076E0, symSize: 0x8C }
  - { offsetInCU: 0x16084, offset: 0x16084, size: 0x8, addend: 0x0, symName: __ZNSt3__116allocator_traitsINS_9allocatorIiEEE7destroyB8ue170006IivEEvRS2_PT_, symObjAddr: 0x61BC, symBinAddr: 0x10000776C, symSize: 0x2C }
  - { offsetInCU: 0x160C1, offset: 0x160C1, size: 0x8, addend: 0x0, symName: __ZNSt3__19allocatorIiE7destroyB8ue170006EPi, symObjAddr: 0x61E8, symBinAddr: 0x100007798, symSize: 0x14 }
  - { offsetInCU: 0x160F5, offset: 0x160F5, size: 0x8, addend: 0x0, symName: __ZNKSt3__16vectorIiNS_9allocatorIiEEE4sizeB8ue170006Ev, symObjAddr: 0x61FC, symBinAddr: 0x1000077AC, symSize: 0x28 }
  - { offsetInCU: 0x1611B, offset: 0x1611B, size: 0x8, addend: 0x0, symName: __ZNSt3__19allocatorIiE10deallocateB8ue170006EPim, symObjAddr: 0x6224, symBinAddr: 0x1000077D4, symSize: 0x40 }
  - { offsetInCU: 0x1615D, offset: 0x1615D, size: 0x8, addend: 0x0, symName: __ZNSt3__16vectorIiNS_9allocatorIiEEED2B8ue170006Ev, symObjAddr: 0x6264, symBinAddr: 0x100007814, symSize: 0x40 }
  - { offsetInCU: 0x16187, offset: 0x16187, size: 0x8, addend: 0x0, symName: __ZNSt3__16vectorIiNS_9allocatorIiEEE11__make_iterB8ue170006EPi, symObjAddr: 0x62A4, symBinAddr: 0x100007854, symSize: 0x30 }
  - { offsetInCU: 0x161BC, offset: 0x161BC, size: 0x8, addend: 0x0, symName: __ZNSt3__111__wrap_iterIPiEC1B8ue170006ES1_, symObjAddr: 0x62D4, symBinAddr: 0x100007884, symSize: 0x34 }
  - { offsetInCU: 0x161F4, offset: 0x161F4, size: 0x8, addend: 0x0, symName: __ZNSt3__111__wrap_iterIPiEC2B8ue170006ES1_, symObjAddr: 0x6308, symBinAddr: 0x1000078B8, symSize: 0x20 }
  - { offsetInCU: 0x16237, offset: 0x16237, size: 0x8, addend: 0x0, symName: '__ZZ5test1vENK3$_0clEi', symObjAddr: 0x6328, symBinAddr: 0x1000078D8, symSize: 0x3C }
  - { offsetInCU: 0x1626F, offset: 0x1626F, size: 0x8, addend: 0x0, symName: __ZNSt3__16vectorIZ5test2vE5PointNS_9allocatorIS1_EEEC2B8ue170006ESt16initializer_listIS1_E, symObjAddr: 0x6364, symBinAddr: 0x100007914, symSize: 0x120 }
  - { offsetInCU: 0x162BF, offset: 0x162BF, size: 0x8, addend: 0x0, symName: __ZNSt3__117__compressed_pairIPZ5test2vE5PointNS_9allocatorIS1_EEEC1B8ue170006IDnNS_18__default_init_tagEEEOT_OT0_, symObjAddr: 0x6484, symBinAddr: 0x100007A34, symSize: 0x3C }
  - { offsetInCU: 0x16317, offset: 0x16317, size: 0x8, addend: 0x0, symName: __ZNSt3__16vectorIZ5test2vE5PointNS_9allocatorIS1_EEE16__destroy_vectorC1B8ue170006ERS4_, symObjAddr: 0x6500, symBinAddr: 0x100007AB0, symSize: 0x34 }
  - { offsetInCU: 0x16350, offset: 0x16350, size: 0x8, addend: 0x0, symName: __ZNKSt16initializer_listIZ5test2vE5PointE4sizeB8ue170006Ev, symObjAddr: 0x6534, symBinAddr: 0x100007AE4, symSize: 0x18 }
  - { offsetInCU: 0x16376, offset: 0x16376, size: 0x8, addend: 0x0, symName: __ZNSt3__16vectorIZ5test2vE5PointNS_9allocatorIS1_EEE11__vallocateB8ue170006Em, symObjAddr: 0x654C, symBinAddr: 0x100007AFC, symSize: 0xAC }
  - { offsetInCU: 0x163BA, offset: 0x163BA, size: 0x8, addend: 0x0, symName: __ZNSt3__16vectorIZ5test2vE5PointNS_9allocatorIS1_EEE18__construct_at_endIPKS1_S7_EEvT_T0_m, symObjAddr: 0x65F8, symBinAddr: 0x100007BA8, symSize: 0x8C }
  - { offsetInCU: 0x16430, offset: 0x16430, size: 0x8, addend: 0x0, symName: __ZNKSt16initializer_listIZ5test2vE5PointE5beginB8ue170006Ev, symObjAddr: 0x6684, symBinAddr: 0x100007C34, symSize: 0x18 }
  - { offsetInCU: 0x16456, offset: 0x16456, size: 0x8, addend: 0x0, symName: __ZNKSt16initializer_listIZ5test2vE5PointE3endB8ue170006Ev, symObjAddr: 0x669C, symBinAddr: 0x100007C4C, symSize: 0x20 }
  - { offsetInCU: 0x1647C, offset: 0x1647C, size: 0x8, addend: 0x0, symName: __ZNSt3__128__exception_guard_exceptionsINS_6vectorIZ5test2vE5PointNS_9allocatorIS2_EEE16__destroy_vectorEE10__completeB8ue170006Ev, symObjAddr: 0x66BC, symBinAddr: 0x100007C6C, symSize: 0x1C }
  - { offsetInCU: 0x164A2, offset: 0x164A2, size: 0x8, addend: 0x0, symName: __ZNSt3__128__exception_guard_exceptionsINS_6vectorIZ5test2vE5PointNS_9allocatorIS2_EEE16__destroy_vectorEED1B8ue170006Ev, symObjAddr: 0x66D8, symBinAddr: 0x100007C88, symSize: 0x2C }
  - { offsetInCU: 0x164CC, offset: 0x164CC, size: 0x8, addend: 0x0, symName: __ZNSt3__117__compressed_pairIPZ5test2vE5PointNS_9allocatorIS1_EEEC2B8ue170006IDnNS_18__default_init_tagEEEOT_OT0_, symObjAddr: 0x6704, symBinAddr: 0x100007CB4, symSize: 0x40 }
  - { offsetInCU: 0x16524, offset: 0x16524, size: 0x8, addend: 0x0, symName: __ZNSt3__122__compressed_pair_elemIPZ5test2vE5PointLi0ELb0EEC2B8ue170006IDnvEEOT_, symObjAddr: 0x6744, symBinAddr: 0x100007CF4, symSize: 0x1C }
  - { offsetInCU: 0x16566, offset: 0x16566, size: 0x8, addend: 0x0, symName: __ZNSt3__122__compressed_pair_elemINS_9allocatorIZ5test2vE5PointEELi1ELb1EEC2B8ue170006ENS_18__default_init_tagE, symObjAddr: 0x6760, symBinAddr: 0x100007D10, symSize: 0x2C }
  - { offsetInCU: 0x1659B, offset: 0x1659B, size: 0x8, addend: 0x0, symName: __ZNSt3__19allocatorIZ5test2vE5PointEC2B8ue170006Ev, symObjAddr: 0x678C, symBinAddr: 0x100007D3C, symSize: 0x2C }
  - { offsetInCU: 0x165C5, offset: 0x165C5, size: 0x8, addend: 0x0, symName: __ZNSt3__116__non_trivial_ifILb1ENS_9allocatorIZ5test2vE5PointEEEC2B8ue170006Ev, symObjAddr: 0x67B8, symBinAddr: 0x100007D68, symSize: 0x14 }
  - { offsetInCU: 0x165EF, offset: 0x165EF, size: 0x8, addend: 0x0, symName: __ZNSt3__128__exception_guard_exceptionsINS_6vectorIZ5test2vE5PointNS_9allocatorIS2_EEE16__destroy_vectorEEC1B8ue170006ES6_, symObjAddr: 0x67CC, symBinAddr: 0x100007D7C, symSize: 0x34 }
  - { offsetInCU: 0x16627, offset: 0x16627, size: 0x8, addend: 0x0, symName: __ZNSt3__128__exception_guard_exceptionsINS_6vectorIZ5test2vE5PointNS_9allocatorIS2_EEE16__destroy_vectorEEC2B8ue170006ES6_, symObjAddr: 0x6800, symBinAddr: 0x100007DB0, symSize: 0x24 }
  - { offsetInCU: 0x1665F, offset: 0x1665F, size: 0x8, addend: 0x0, symName: __ZNSt3__16vectorIZ5test2vE5PointNS_9allocatorIS1_EEE16__destroy_vectorC2B8ue170006ERS4_, symObjAddr: 0x6824, symBinAddr: 0x100007DD4, symSize: 0x20 }
  - { offsetInCU: 0x16698, offset: 0x16698, size: 0x8, addend: 0x0, symName: __ZNKSt3__16vectorIZ5test2vE5PointNS_9allocatorIS1_EEE8max_sizeEv, symObjAddr: 0x6844, symBinAddr: 0x100007DF4, symSize: 0x60 }
  - { offsetInCU: 0x166C0, offset: 0x166C0, size: 0x8, addend: 0x0, symName: __ZNKSt3__16vectorIZ5test2vE5PointNS_9allocatorIS1_EEE20__throw_length_errorB8ue170006Ev, symObjAddr: 0x68A4, symBinAddr: 0x100007E54, symSize: 0x1C }
  - { offsetInCU: 0x166E6, offset: 0x166E6, size: 0x8, addend: 0x0, symName: __ZNSt3__16vectorIZ5test2vE5PointNS_9allocatorIS1_EEE7__allocB8ue170006Ev, symObjAddr: 0x6900, symBinAddr: 0x100007EB0, symSize: 0x28 }
  - { offsetInCU: 0x1670C, offset: 0x1670C, size: 0x8, addend: 0x0, symName: __ZNSt3__16vectorIZ5test2vE5PointNS_9allocatorIS1_EEE9__end_capB8ue170006Ev, symObjAddr: 0x6928, symBinAddr: 0x100007ED8, symSize: 0x28 }
  - { offsetInCU: 0x16732, offset: 0x16732, size: 0x8, addend: 0x0, symName: __ZNKSt3__16vectorIZ5test2vE5PointNS_9allocatorIS1_EEE14__annotate_newB8ue170006Em, symObjAddr: 0x6950, symBinAddr: 0x100007F00, symSize: 0xAC }
  - { offsetInCU: 0x16772, offset: 0x16772, size: 0x8, addend: 0x0, symName: __ZNSt3__116allocator_traitsINS_9allocatorIZ5test2vE5PointEEE8max_sizeB8ue170006IS3_vEEmRKS3_, symObjAddr: 0x69FC, symBinAddr: 0x100007FAC, symSize: 0x24 }
  - { offsetInCU: 0x167A0, offset: 0x167A0, size: 0x8, addend: 0x0, symName: __ZNKSt3__16vectorIZ5test2vE5PointNS_9allocatorIS1_EEE7__allocB8ue170006Ev, symObjAddr: 0x6A20, symBinAddr: 0x100007FD0, symSize: 0x28 }
  - { offsetInCU: 0x167C6, offset: 0x167C6, size: 0x8, addend: 0x0, symName: __ZNKSt3__19allocatorIZ5test2vE5PointE8max_sizeB8ue170006Ev, symObjAddr: 0x6A48, symBinAddr: 0x100007FF8, symSize: 0x14 }
  - { offsetInCU: 0x167EC, offset: 0x167EC, size: 0x8, addend: 0x0, symName: __ZNKSt3__117__compressed_pairIPZ5test2vE5PointNS_9allocatorIS1_EEE6secondB8ue170006Ev, symObjAddr: 0x6A5C, symBinAddr: 0x10000800C, symSize: 0x24 }
  - { offsetInCU: 0x16812, offset: 0x16812, size: 0x8, addend: 0x0, symName: __ZNKSt3__122__compressed_pair_elemINS_9allocatorIZ5test2vE5PointEELi1ELb1EE5__getB8ue170006Ev, symObjAddr: 0x6A80, symBinAddr: 0x100008030, symSize: 0x14 }
  - { offsetInCU: 0x16838, offset: 0x16838, size: 0x8, addend: 0x0, symName: __ZNSt3__19allocatorIZ5test2vE5PointE8allocateB8ue170006Em, symObjAddr: 0x6A94, symBinAddr: 0x100008044, symSize: 0x58 }
  - { offsetInCU: 0x1686C, offset: 0x1686C, size: 0x8, addend: 0x0, symName: __ZNSt3__117__compressed_pairIPZ5test2vE5PointNS_9allocatorIS1_EEE6secondB8ue170006Ev, symObjAddr: 0x6AEC, symBinAddr: 0x10000809C, symSize: 0x24 }
  - { offsetInCU: 0x16892, offset: 0x16892, size: 0x8, addend: 0x0, symName: __ZNSt3__122__compressed_pair_elemINS_9allocatorIZ5test2vE5PointEELi1ELb1EE5__getB8ue170006Ev, symObjAddr: 0x6B10, symBinAddr: 0x1000080C0, symSize: 0x14 }
  - { offsetInCU: 0x168B8, offset: 0x168B8, size: 0x8, addend: 0x0, symName: __ZNSt3__117__compressed_pairIPZ5test2vE5PointNS_9allocatorIS1_EEE5firstB8ue170006Ev, symObjAddr: 0x6B24, symBinAddr: 0x1000080D4, symSize: 0x24 }
  - { offsetInCU: 0x168DE, offset: 0x168DE, size: 0x8, addend: 0x0, symName: __ZNSt3__122__compressed_pair_elemIPZ5test2vE5PointLi0ELb0EE5__getB8ue170006Ev, symObjAddr: 0x6B48, symBinAddr: 0x1000080F8, symSize: 0x14 }
  - { offsetInCU: 0x16904, offset: 0x16904, size: 0x8, addend: 0x0, symName: __ZNKSt3__16vectorIZ5test2vE5PointNS_9allocatorIS1_EEE31__annotate_contiguous_containerB8ue170006EPKvS6_S6_S6_, symObjAddr: 0x6B5C, symBinAddr: 0x10000810C, symSize: 0x20 }
  - { offsetInCU: 0x1695A, offset: 0x1695A, size: 0x8, addend: 0x0, symName: __ZNKSt3__16vectorIZ5test2vE5PointNS_9allocatorIS1_EEE4dataB8ue170006Ev, symObjAddr: 0x6B7C, symBinAddr: 0x10000812C, symSize: 0x28 }
  - { offsetInCU: 0x16980, offset: 0x16980, size: 0x8, addend: 0x0, symName: __ZNKSt3__16vectorIZ5test2vE5PointNS_9allocatorIS1_EEE8capacityB8ue170006Ev, symObjAddr: 0x6BA4, symBinAddr: 0x100008154, symSize: 0x40 }
  - { offsetInCU: 0x169A6, offset: 0x169A6, size: 0x8, addend: 0x0, symName: __ZNKSt3__16vectorIZ5test2vE5PointNS_9allocatorIS1_EEE9__end_capB8ue170006Ev, symObjAddr: 0x6BF8, symBinAddr: 0x1000081A8, symSize: 0x28 }
  - { offsetInCU: 0x169CC, offset: 0x169CC, size: 0x8, addend: 0x0, symName: __ZNKSt3__117__compressed_pairIPZ5test2vE5PointNS_9allocatorIS1_EEE5firstB8ue170006Ev, symObjAddr: 0x6C20, symBinAddr: 0x1000081D0, symSize: 0x24 }
  - { offsetInCU: 0x169F2, offset: 0x169F2, size: 0x8, addend: 0x0, symName: __ZNKSt3__122__compressed_pair_elemIPZ5test2vE5PointLi0ELb0EE5__getB8ue170006Ev, symObjAddr: 0x6C44, symBinAddr: 0x1000081F4, symSize: 0x14 }
  - { offsetInCU: 0x16A34, offset: 0x16A34, size: 0x8, addend: 0x0, symName: __ZNSt3__16vectorIZ5test2vE5PointNS_9allocatorIS1_EEE21_ConstructTransactionC1B8ue170006ERS4_m, symObjAddr: 0x6C58, symBinAddr: 0x100008208, symSize: 0x3C }
  - { offsetInCU: 0x16A7C, offset: 0x16A7C, size: 0x8, addend: 0x0, symName: __ZNSt3__16vectorIZ5test2vE5PointNS_9allocatorIS1_EEE21_ConstructTransactionD1B8ue170006Ev, symObjAddr: 0x6D14, symBinAddr: 0x1000082C4, symSize: 0x2C }
  - { offsetInCU: 0x16AA6, offset: 0x16AA6, size: 0x8, addend: 0x0, symName: __ZNSt3__16vectorIZ5test2vE5PointNS_9allocatorIS1_EEE21_ConstructTransactionC2B8ue170006ERS4_m, symObjAddr: 0x6D40, symBinAddr: 0x1000082F0, symSize: 0x44 }
  - { offsetInCU: 0x16B11, offset: 0x16B11, size: 0x8, addend: 0x0, symName: __ZNSt3__14pairIPKZ5test2vE5PointS3_EC1B8ue170006IS3_S3_LPv0EEEOT_OT0_, symObjAddr: 0x6ED8, symBinAddr: 0x100008488, symSize: 0x3C }
  - { offsetInCU: 0x16B6F, offset: 0x16B6F, size: 0x8, addend: 0x0, symName: __ZNSt3__14pairIPKZ5test2vE5PointS3_EC2B8ue170006IS3_S3_LPv0EEEOT_OT0_, symObjAddr: 0x6F14, symBinAddr: 0x1000084C4, symSize: 0x34 }
  - { offsetInCU: 0x16BCD, offset: 0x16BCD, size: 0x8, addend: 0x0, symName: __ZNSt3__118__unwrap_iter_implIPKZ5test2vE5PointLb1EE8__unwrapB8ue170006ES3_, symObjAddr: 0x6F48, symBinAddr: 0x1000084F8, symSize: 0x24 }
  - { offsetInCU: 0x16C0D, offset: 0x16C0D, size: 0x8, addend: 0x0, symName: __ZNKSt3__114__copy_trivialclB8ue170006IKZ5test2vE5PointS2_Li0EEENS_4pairIPT_PT0_EES6_S6_S8_, symObjAddr: 0x70FC, symBinAddr: 0x1000086AC, symSize: 0x48 }
  - { offsetInCU: 0x16C81, offset: 0x16C81, size: 0x8, addend: 0x0, symName: __ZNSt3__14pairIPKZ5test2vE5PointPS1_EC1B8ue170006IRS3_S4_LPv0EEEOT_OT0_, symObjAddr: 0x72C4, symBinAddr: 0x100008874, symSize: 0x3C }
  - { offsetInCU: 0x16CDF, offset: 0x16CDF, size: 0x8, addend: 0x0, symName: __ZNSt3__14pairIPKZ5test2vE5PointPS1_EC2B8ue170006IRS3_S4_LPv0EEEOT_OT0_, symObjAddr: 0x7300, symBinAddr: 0x1000088B0, symSize: 0x34 }
  - { offsetInCU: 0x16D3D, offset: 0x16D3D, size: 0x8, addend: 0x0, symName: __ZNSt3__14pairIPKZ5test2vE5PointPS1_EC1B8ue170006IS3_S4_LPv0EEEOT_OT0_, symObjAddr: 0x7334, symBinAddr: 0x1000088E4, symSize: 0x3C }
  - { offsetInCU: 0x16D9B, offset: 0x16D9B, size: 0x8, addend: 0x0, symName: __ZNSt3__14pairIPKZ5test2vE5PointPS1_EC2B8ue170006IS3_S4_LPv0EEEOT_OT0_, symObjAddr: 0x7370, symBinAddr: 0x100008920, symSize: 0x34 }
  - { offsetInCU: 0x16DF9, offset: 0x16DF9, size: 0x8, addend: 0x0, symName: __ZNSt3__118__unwrap_iter_implIPKZ5test2vE5PointLb1EE8__rewrapB8ue170006ES3_S3_, symObjAddr: 0x73E0, symBinAddr: 0x100008990, symSize: 0x50 }
  - { offsetInCU: 0x16E2A, offset: 0x16E2A, size: 0x8, addend: 0x0, symName: __ZNSt3__118__unwrap_iter_implIPZ5test2vE5PointLb1EE8__unwrapB8ue170006ES2_, symObjAddr: 0x7430, symBinAddr: 0x1000089E0, symSize: 0x24 }
  - { offsetInCU: 0x16E4D, offset: 0x16E4D, size: 0x8, addend: 0x0, symName: __ZNSt3__118__unwrap_iter_implIPZ5test2vE5PointLb1EE8__rewrapB8ue170006ES2_S2_, symObjAddr: 0x7454, symBinAddr: 0x100008A04, symSize: 0x50 }
  - { offsetInCU: 0x16E7E, offset: 0x16E7E, size: 0x8, addend: 0x0, symName: __ZNSt3__16vectorIZ5test2vE5PointNS_9allocatorIS1_EEE21_ConstructTransactionD2B8ue170006Ev, symObjAddr: 0x74A4, symBinAddr: 0x100008A54, symSize: 0x20 }
  - { offsetInCU: 0x16EA8, offset: 0x16EA8, size: 0x8, addend: 0x0, symName: __ZNSt3__128__exception_guard_exceptionsINS_6vectorIZ5test2vE5PointNS_9allocatorIS2_EEE16__destroy_vectorEED2B8ue170006Ev, symObjAddr: 0x74C4, symBinAddr: 0x100008A74, symSize: 0x50 }
  - { offsetInCU: 0x16ED2, offset: 0x16ED2, size: 0x8, addend: 0x0, symName: __ZNSt3__16vectorIZ5test2vE5PointNS_9allocatorIS1_EEE16__destroy_vectorclB8ue170006Ev, symObjAddr: 0x7514, symBinAddr: 0x100008AC4, symSize: 0x90 }
  - { offsetInCU: 0x16EF8, offset: 0x16EF8, size: 0x8, addend: 0x0, symName: __ZNSt3__16vectorIZ5test2vE5PointNS_9allocatorIS1_EEE7__clearB8ue170006Ev, symObjAddr: 0x75A4, symBinAddr: 0x100008B54, symSize: 0x28 }
  - { offsetInCU: 0x16F1E, offset: 0x16F1E, size: 0x8, addend: 0x0, symName: __ZNKSt3__16vectorIZ5test2vE5PointNS_9allocatorIS1_EEE17__annotate_deleteB8ue170006Ev, symObjAddr: 0x75CC, symBinAddr: 0x100008B7C, symSize: 0xB8 }
  - { offsetInCU: 0x16F44, offset: 0x16F44, size: 0x8, addend: 0x0, symName: __ZNSt3__116allocator_traitsINS_9allocatorIZ5test2vE5PointEEE10deallocateB8ue170006ERS3_PS2_m, symObjAddr: 0x7684, symBinAddr: 0x100008C34, symSize: 0x34 }
  - { offsetInCU: 0x16F86, offset: 0x16F86, size: 0x8, addend: 0x0, symName: __ZNSt3__16vectorIZ5test2vE5PointNS_9allocatorIS1_EEE22__base_destruct_at_endB8ue170006EPS1_, symObjAddr: 0x76B8, symBinAddr: 0x100008C68, symSize: 0x8C }
  - { offsetInCU: 0x16FCA, offset: 0x16FCA, size: 0x8, addend: 0x0, symName: __ZNSt3__116allocator_traitsINS_9allocatorIZ5test2vE5PointEEE7destroyB8ue170006IS2_vEEvRS3_PT_, symObjAddr: 0x7744, symBinAddr: 0x100008CF4, symSize: 0x2C }
  - { offsetInCU: 0x17007, offset: 0x17007, size: 0x8, addend: 0x0, symName: __ZNSt3__19allocatorIZ5test2vE5PointE7destroyB8ue170006EPS1_, symObjAddr: 0x7770, symBinAddr: 0x100008D20, symSize: 0x14 }
  - { offsetInCU: 0x1703B, offset: 0x1703B, size: 0x8, addend: 0x0, symName: __ZNKSt3__16vectorIZ5test2vE5PointNS_9allocatorIS1_EEE4sizeB8ue170006Ev, symObjAddr: 0x7784, symBinAddr: 0x100008D34, symSize: 0x28 }
  - { offsetInCU: 0x17061, offset: 0x17061, size: 0x8, addend: 0x0, symName: __ZNSt3__19allocatorIZ5test2vE5PointE10deallocateB8ue170006EPS1_m, symObjAddr: 0x77AC, symBinAddr: 0x100008D5C, symSize: 0x40 }
  - { offsetInCU: 0x170A3, offset: 0x170A3, size: 0x8, addend: 0x0, symName: __ZNSt3__16vectorIZ5test2vE5PointNS_9allocatorIS1_EEED2B8ue170006Ev, symObjAddr: 0x77EC, symBinAddr: 0x100008D9C, symSize: 0x40 }
  - { offsetInCU: 0x170CD, offset: 0x170CD, size: 0x8, addend: 0x0, symName: __ZNSt3__16vectorIZ5test2vE5PointNS_9allocatorIS1_EEE11__make_iterB8ue170006EPS1_, symObjAddr: 0x782C, symBinAddr: 0x100008DDC, symSize: 0x30 }
  - { offsetInCU: 0x17102, offset: 0x17102, size: 0x8, addend: 0x0, symName: __ZNSt3__111__wrap_iterIPZ5test2vE5PointEC1B8ue170006ES2_, symObjAddr: 0x785C, symBinAddr: 0x100008E0C, symSize: 0x34 }
  - { offsetInCU: 0x1713A, offset: 0x1713A, size: 0x8, addend: 0x0, symName: __ZNSt3__111__wrap_iterIPZ5test2vE5PointEC2B8ue170006ES2_, symObjAddr: 0x7890, symBinAddr: 0x100008E40, symSize: 0x20 }
  - { offsetInCU: 0x1717D, offset: 0x1717D, size: 0x8, addend: 0x0, symName: '__ZZ5test2vENK3$_1clEZ5test2vE5PointS0_', symObjAddr: 0x7A5C, symBinAddr: 0x10000900C, symSize: 0x58 }
  - { offsetInCU: 0x171C3, offset: 0x171C3, size: 0x8, addend: 0x0, symName: __ZNKSt3__111__wrap_iterIPZ5test2vE5PointEdeB8ue170006Ev, symObjAddr: 0x7AB4, symBinAddr: 0x100009064, symSize: 0x18 }
  - { offsetInCU: 0x171E9, offset: 0x171E9, size: 0x8, addend: 0x0, symName: __ZNSt3__111__wrap_iterIPZ5test2vE5PointEppB8ue170006Ev, symObjAddr: 0x7ACC, symBinAddr: 0x10000907C, symSize: 0x20 }
  - { offsetInCU: 0x1720F, offset: 0x1720F, size: 0x8, addend: 0x0, symName: __ZNSt3__18_IterOpsINS_17_ClassicAlgPolicyEE8distanceB8ue170006INS_11__wrap_iterIPZ5test2vE5PointEEEENS_15iterator_traitsIT_E15difference_typeES9_S9_, symObjAddr: 0x7B34, symBinAddr: 0x1000090E4, symSize: 0x3C }
  - { offsetInCU: 0x17249, offset: 0x17249, size: 0x8, addend: 0x0, symName: __ZNSt3__18_IterOpsINS_17_ClassicAlgPolicyEE4nextB8ue170006IRNS_11__wrap_iterIPZ5test2vE5PointEEEEu14__remove_cvrefIT_EOS9_NS_15iterator_traitsISA_E15difference_typeE, symObjAddr: 0x7B70, symBinAddr: 0x100009120, symSize: 0x40 }
  - { offsetInCU: 0x17283, offset: 0x17283, size: 0x8, addend: 0x0, symName: __ZNKSt3__111__wrap_iterIPZ5test2vE5PointE4baseB8ue170006Ev, symObjAddr: 0x7E74, symBinAddr: 0x100009424, symSize: 0x18 }
  - { offsetInCU: 0x172A9, offset: 0x172A9, size: 0x8, addend: 0x0, symName: __ZNSt3__111__wrap_iterIPZ5test2vE5PointEpLB8ue170006El, symObjAddr: 0x7FF4, symBinAddr: 0x1000095A4, symSize: 0x28 }
  - { offsetInCU: 0x172E8, offset: 0x172E8, size: 0x8, addend: 0x0, symName: __ZNKSt3__110__identityclB8ue170006IRZ5test2vE5PointEEOT_S5_, symObjAddr: 0x8098, symBinAddr: 0x100009648, symSize: 0x18 }
  - { offsetInCU: 0x17330, offset: 0x17330, size: 0x8, addend: 0x0, symName: '__ZZ5test2vENK3$_2clEZ5test2vE5PointS0_', symObjAddr: 0x8228, symBinAddr: 0x1000097D8, symSize: 0x58 }
  - { offsetInCU: 0x17381, offset: 0x17381, size: 0x8, addend: 0x0, symName: '__ZZ5test3vENK3$_3clEi', symObjAddr: 0x8594, symBinAddr: 0x100009B44, symSize: 0x28 }
  - { offsetInCU: 0x173C4, offset: 0x173C4, size: 0x8, addend: 0x0, symName: '__ZZ5test4vENK3$_4clEi', symObjAddr: 0x8640, symBinAddr: 0x100009BF0, symSize: 0x34 }
  - { offsetInCU: 0x173FC, offset: 0x173FC, size: 0x8, addend: 0x0, symName: __ZNSt3__16vectorIiNS_9allocatorIiEEE17__destruct_at_endB8ue170006EPi, symObjAddr: 0x86F0, symBinAddr: 0x100009CA0, symSize: 0x4C }
  - { offsetInCU: 0x17440, offset: 0x17440, size: 0x8, addend: 0x0, symName: __ZNKSt3__111__wrap_iterIPKiE4baseB8ue170006Ev, symObjAddr: 0x87C4, symBinAddr: 0x100009D74, symSize: 0x18 }
  - { offsetInCU: 0x17466, offset: 0x17466, size: 0x8, addend: 0x0, symName: __ZNKSt3__16vectorIiNS_9allocatorIiEEE17__annotate_shrinkB8ue170006Em, symObjAddr: 0x8824, symBinAddr: 0x100009DD4, symSize: 0xB4 }
  - { offsetInCU: 0x174C3, offset: 0x174C3, size: 0x8, addend: 0x0, symName: __ZNKSt3__114__move_trivialclB8ue170006IiiLi0EEENS_4pairIPT_PT0_EES4_S4_S6_, symObjAddr: 0x8A74, symBinAddr: 0x10000A024, symSize: 0x48 }
  - { offsetInCU: 0x1752B, offset: 0x1752B, size: 0x8, addend: 0x0, symName: __ZNSt3__14pairIPiS1_EC1B8ue170006IRS1_S1_LPv0EEEOT_OT0_, symObjAddr: 0x8C3C, symBinAddr: 0x10000A1EC, symSize: 0x3C }
  - { offsetInCU: 0x17589, offset: 0x17589, size: 0x8, addend: 0x0, symName: __ZNSt3__14pairIPiS1_EC2B8ue170006IRS1_S1_LPv0EEEOT_OT0_, symObjAddr: 0x8C78, symBinAddr: 0x10000A228, symSize: 0x34 }
  - { offsetInCU: 0x175E7, offset: 0x175E7, size: 0x8, addend: 0x0, symName: __ZNSt3__14pairIPiS1_EC1B8ue170006IS1_S1_LPv0EEEOT_OT0_, symObjAddr: 0x8CAC, symBinAddr: 0x10000A25C, symSize: 0x3C }
  - { offsetInCU: 0x17645, offset: 0x17645, size: 0x8, addend: 0x0, symName: __ZNSt3__14pairIPiS1_EC2B8ue170006IS1_S1_LPv0EEEOT_OT0_, symObjAddr: 0x8CE8, symBinAddr: 0x10000A298, symSize: 0x34 }
  - { offsetInCU: 0x176A3, offset: 0x176A3, size: 0x8, addend: 0x0, symName: __ZNKSt3__112basic_stringIcNS_11char_traitsIcEENS_9allocatorIcEEE4dataB8ue170006Ev, symObjAddr: 0x8D1C, symBinAddr: 0x10000A2CC, symSize: 0x28 }
  - { offsetInCU: 0x176C9, offset: 0x176C9, size: 0x8, addend: 0x0, symName: __ZNKSt3__112basic_stringIcNS_11char_traitsIcEENS_9allocatorIcEEE13__get_pointerB8ue170006Ev, symObjAddr: 0x8D44, symBinAddr: 0x10000A2F4, symSize: 0x54 }
  - { offsetInCU: 0x176EF, offset: 0x176EF, size: 0x8, addend: 0x0, symName: __ZNKSt3__112basic_stringIcNS_11char_traitsIcEENS_9allocatorIcEEE18__get_long_pointerB8ue170006Ev, symObjAddr: 0x8D98, symBinAddr: 0x10000A348, symSize: 0x28 }
  - { offsetInCU: 0x17715, offset: 0x17715, size: 0x8, addend: 0x0, symName: __ZNKSt3__112basic_stringIcNS_11char_traitsIcEENS_9allocatorIcEEE19__get_short_pointerB8ue170006Ev, symObjAddr: 0x8DC0, symBinAddr: 0x10000A370, symSize: 0x28 }
  - { offsetInCU: 0x1773B, offset: 0x1773B, size: 0x8, addend: 0x0, symName: __ZNSt3__114pointer_traitsIPKcE10pointer_toB8ue170006ERS1_, symObjAddr: 0x8DE8, symBinAddr: 0x10000A398, symSize: 0x14 }
  - { offsetInCU: 0x1775E, offset: 0x1775E, size: 0x8, addend: 0x0, symName: __ZNSt3__112basic_stringIcNS_11char_traitsIcEENS_9allocatorIcEEEC2B8ue170006ILi0EEEPKc, symObjAddr: 0x8DFC, symBinAddr: 0x10000A3AC, symSize: 0x58 }
  - { offsetInCU: 0x1779D, offset: 0x1779D, size: 0x8, addend: 0x0, symName: __ZNSt3__16vectorI6PersonNS_9allocatorIS1_EEEC2B8ue170006ESt16initializer_listIS1_E, symObjAddr: 0x8E54, symBinAddr: 0x10000A404, symSize: 0x120 }
  - { offsetInCU: 0x177ED, offset: 0x177ED, size: 0x8, addend: 0x0, symName: __ZNSt3__117__compressed_pairIP6PersonNS_9allocatorIS1_EEEC1B8ue170006IDnNS_18__default_init_tagEEEOT_OT0_, symObjAddr: 0x8F74, symBinAddr: 0x10000A524, symSize: 0x3C }
  - { offsetInCU: 0x17845, offset: 0x17845, size: 0x8, addend: 0x0, symName: __ZNSt3__16vectorI6PersonNS_9allocatorIS1_EEE16__destroy_vectorC1B8ue170006ERS4_, symObjAddr: 0x8FF0, symBinAddr: 0x10000A5A0, symSize: 0x34 }
  - { offsetInCU: 0x1787E, offset: 0x1787E, size: 0x8, addend: 0x0, symName: __ZNKSt16initializer_listI6PersonE4sizeB8ue170006Ev, symObjAddr: 0x9024, symBinAddr: 0x10000A5D4, symSize: 0x18 }
  - { offsetInCU: 0x178A4, offset: 0x178A4, size: 0x8, addend: 0x0, symName: __ZNSt3__16vectorI6PersonNS_9allocatorIS1_EEE11__vallocateB8ue170006Em, symObjAddr: 0x903C, symBinAddr: 0x10000A5EC, symSize: 0xAC }
  - { offsetInCU: 0x178E8, offset: 0x178E8, size: 0x8, addend: 0x0, symName: __ZNSt3__16vectorI6PersonNS_9allocatorIS1_EEE18__construct_at_endIPKS1_S7_EEvT_T0_m, symObjAddr: 0x90E8, symBinAddr: 0x10000A698, symSize: 0x8C }
  - { offsetInCU: 0x1795E, offset: 0x1795E, size: 0x8, addend: 0x0, symName: __ZNKSt16initializer_listI6PersonE5beginB8ue170006Ev, symObjAddr: 0x9174, symBinAddr: 0x10000A724, symSize: 0x18 }
  - { offsetInCU: 0x17984, offset: 0x17984, size: 0x8, addend: 0x0, symName: __ZNKSt16initializer_listI6PersonE3endB8ue170006Ev, symObjAddr: 0x918C, symBinAddr: 0x10000A73C, symSize: 0x20 }
  - { offsetInCU: 0x179AA, offset: 0x179AA, size: 0x8, addend: 0x0, symName: __ZNSt3__128__exception_guard_exceptionsINS_6vectorI6PersonNS_9allocatorIS2_EEE16__destroy_vectorEE10__completeB8ue170006Ev, symObjAddr: 0x91AC, symBinAddr: 0x10000A75C, symSize: 0x1C }
  - { offsetInCU: 0x179D0, offset: 0x179D0, size: 0x8, addend: 0x0, symName: __ZNSt3__128__exception_guard_exceptionsINS_6vectorI6PersonNS_9allocatorIS2_EEE16__destroy_vectorEED1B8ue170006Ev, symObjAddr: 0x91C8, symBinAddr: 0x10000A778, symSize: 0x2C }
  - { offsetInCU: 0x179FA, offset: 0x179FA, size: 0x8, addend: 0x0, symName: __ZNSt3__117__compressed_pairIP6PersonNS_9allocatorIS1_EEEC2B8ue170006IDnNS_18__default_init_tagEEEOT_OT0_, symObjAddr: 0x91F4, symBinAddr: 0x10000A7A4, symSize: 0x40 }
  - { offsetInCU: 0x17A52, offset: 0x17A52, size: 0x8, addend: 0x0, symName: __ZNSt3__122__compressed_pair_elemIP6PersonLi0ELb0EEC2B8ue170006IDnvEEOT_, symObjAddr: 0x9234, symBinAddr: 0x10000A7E4, symSize: 0x1C }
  - { offsetInCU: 0x17A94, offset: 0x17A94, size: 0x8, addend: 0x0, symName: __ZNSt3__122__compressed_pair_elemINS_9allocatorI6PersonEELi1ELb1EEC2B8ue170006ENS_18__default_init_tagE, symObjAddr: 0x9250, symBinAddr: 0x10000A800, symSize: 0x2C }
  - { offsetInCU: 0x17AC9, offset: 0x17AC9, size: 0x8, addend: 0x0, symName: __ZNSt3__19allocatorI6PersonEC2B8ue170006Ev, symObjAddr: 0x927C, symBinAddr: 0x10000A82C, symSize: 0x2C }
  - { offsetInCU: 0x17AF3, offset: 0x17AF3, size: 0x8, addend: 0x0, symName: __ZNSt3__116__non_trivial_ifILb1ENS_9allocatorI6PersonEEEC2B8ue170006Ev, symObjAddr: 0x92A8, symBinAddr: 0x10000A858, symSize: 0x14 }
  - { offsetInCU: 0x17B1D, offset: 0x17B1D, size: 0x8, addend: 0x0, symName: __ZNSt3__128__exception_guard_exceptionsINS_6vectorI6PersonNS_9allocatorIS2_EEE16__destroy_vectorEEC1B8ue170006ES6_, symObjAddr: 0x92BC, symBinAddr: 0x10000A86C, symSize: 0x34 }
  - { offsetInCU: 0x17B55, offset: 0x17B55, size: 0x8, addend: 0x0, symName: __ZNSt3__128__exception_guard_exceptionsINS_6vectorI6PersonNS_9allocatorIS2_EEE16__destroy_vectorEEC2B8ue170006ES6_, symObjAddr: 0x92F0, symBinAddr: 0x10000A8A0, symSize: 0x24 }
  - { offsetInCU: 0x17B8D, offset: 0x17B8D, size: 0x8, addend: 0x0, symName: __ZNSt3__16vectorI6PersonNS_9allocatorIS1_EEE16__destroy_vectorC2B8ue170006ERS4_, symObjAddr: 0x9314, symBinAddr: 0x10000A8C4, symSize: 0x20 }
  - { offsetInCU: 0x17BC6, offset: 0x17BC6, size: 0x8, addend: 0x0, symName: __ZNKSt3__16vectorI6PersonNS_9allocatorIS1_EEE8max_sizeEv, symObjAddr: 0x9334, symBinAddr: 0x10000A8E4, symSize: 0x60 }
  - { offsetInCU: 0x17BEE, offset: 0x17BEE, size: 0x8, addend: 0x0, symName: __ZNKSt3__16vectorI6PersonNS_9allocatorIS1_EEE20__throw_length_errorB8ue170006Ev, symObjAddr: 0x9394, symBinAddr: 0x10000A944, symSize: 0x1C }
  - { offsetInCU: 0x17C14, offset: 0x17C14, size: 0x8, addend: 0x0, symName: __ZNSt3__16vectorI6PersonNS_9allocatorIS1_EEE7__allocB8ue170006Ev, symObjAddr: 0x93F0, symBinAddr: 0x10000A9A0, symSize: 0x28 }
  - { offsetInCU: 0x17C3A, offset: 0x17C3A, size: 0x8, addend: 0x0, symName: __ZNSt3__16vectorI6PersonNS_9allocatorIS1_EEE9__end_capB8ue170006Ev, symObjAddr: 0x9418, symBinAddr: 0x10000A9C8, symSize: 0x28 }
  - { offsetInCU: 0x17C60, offset: 0x17C60, size: 0x8, addend: 0x0, symName: __ZNKSt3__16vectorI6PersonNS_9allocatorIS1_EEE14__annotate_newB8ue170006Em, symObjAddr: 0x9440, symBinAddr: 0x10000A9F0, symSize: 0xAC }
  - { offsetInCU: 0x17CA0, offset: 0x17CA0, size: 0x8, addend: 0x0, symName: __ZNSt3__116allocator_traitsINS_9allocatorI6PersonEEE8max_sizeB8ue170006IS3_vEEmRKS3_, symObjAddr: 0x94EC, symBinAddr: 0x10000AA9C, symSize: 0x24 }
  - { offsetInCU: 0x17CCE, offset: 0x17CCE, size: 0x8, addend: 0x0, symName: __ZNKSt3__16vectorI6PersonNS_9allocatorIS1_EEE7__allocB8ue170006Ev, symObjAddr: 0x9510, symBinAddr: 0x10000AAC0, symSize: 0x28 }
  - { offsetInCU: 0x17CF4, offset: 0x17CF4, size: 0x8, addend: 0x0, symName: __ZNKSt3__19allocatorI6PersonE8max_sizeB8ue170006Ev, symObjAddr: 0x9538, symBinAddr: 0x10000AAE8, symSize: 0x14 }
  - { offsetInCU: 0x17D1A, offset: 0x17D1A, size: 0x8, addend: 0x0, symName: __ZNKSt3__117__compressed_pairIP6PersonNS_9allocatorIS1_EEE6secondB8ue170006Ev, symObjAddr: 0x954C, symBinAddr: 0x10000AAFC, symSize: 0x24 }
  - { offsetInCU: 0x17D40, offset: 0x17D40, size: 0x8, addend: 0x0, symName: __ZNKSt3__122__compressed_pair_elemINS_9allocatorI6PersonEELi1ELb1EE5__getB8ue170006Ev, symObjAddr: 0x9570, symBinAddr: 0x10000AB20, symSize: 0x14 }
  - { offsetInCU: 0x17D66, offset: 0x17D66, size: 0x8, addend: 0x0, symName: __ZNSt3__19allocatorI6PersonE8allocateB8ue170006Em, symObjAddr: 0x9584, symBinAddr: 0x10000AB34, symSize: 0x58 }
  - { offsetInCU: 0x17D9A, offset: 0x17D9A, size: 0x8, addend: 0x0, symName: __ZNSt3__117__compressed_pairIP6PersonNS_9allocatorIS1_EEE6secondB8ue170006Ev, symObjAddr: 0x95DC, symBinAddr: 0x10000AB8C, symSize: 0x24 }
  - { offsetInCU: 0x17DC0, offset: 0x17DC0, size: 0x8, addend: 0x0, symName: __ZNSt3__122__compressed_pair_elemINS_9allocatorI6PersonEELi1ELb1EE5__getB8ue170006Ev, symObjAddr: 0x9600, symBinAddr: 0x10000ABB0, symSize: 0x14 }
  - { offsetInCU: 0x17DE6, offset: 0x17DE6, size: 0x8, addend: 0x0, symName: __ZNSt3__117__compressed_pairIP6PersonNS_9allocatorIS1_EEE5firstB8ue170006Ev, symObjAddr: 0x9614, symBinAddr: 0x10000ABC4, symSize: 0x24 }
  - { offsetInCU: 0x17E0C, offset: 0x17E0C, size: 0x8, addend: 0x0, symName: __ZNSt3__122__compressed_pair_elemIP6PersonLi0ELb0EE5__getB8ue170006Ev, symObjAddr: 0x9638, symBinAddr: 0x10000ABE8, symSize: 0x14 }
  - { offsetInCU: 0x17E32, offset: 0x17E32, size: 0x8, addend: 0x0, symName: __ZNKSt3__16vectorI6PersonNS_9allocatorIS1_EEE31__annotate_contiguous_containerB8ue170006EPKvS6_S6_S6_, symObjAddr: 0x964C, symBinAddr: 0x10000ABFC, symSize: 0x20 }
  - { offsetInCU: 0x17E88, offset: 0x17E88, size: 0x8, addend: 0x0, symName: __ZNKSt3__16vectorI6PersonNS_9allocatorIS1_EEE4dataB8ue170006Ev, symObjAddr: 0x966C, symBinAddr: 0x10000AC1C, symSize: 0x28 }
  - { offsetInCU: 0x17EAE, offset: 0x17EAE, size: 0x8, addend: 0x0, symName: __ZNKSt3__16vectorI6PersonNS_9allocatorIS1_EEE8capacityB8ue170006Ev, symObjAddr: 0x9694, symBinAddr: 0x10000AC44, symSize: 0x40 }
  - { offsetInCU: 0x17ED4, offset: 0x17ED4, size: 0x8, addend: 0x0, symName: __ZNKSt3__16vectorI6PersonNS_9allocatorIS1_EEE9__end_capB8ue170006Ev, symObjAddr: 0x96E8, symBinAddr: 0x10000AC98, symSize: 0x28 }
  - { offsetInCU: 0x17EFA, offset: 0x17EFA, size: 0x8, addend: 0x0, symName: __ZNKSt3__117__compressed_pairIP6PersonNS_9allocatorIS1_EEE5firstB8ue170006Ev, symObjAddr: 0x9710, symBinAddr: 0x10000ACC0, symSize: 0x24 }
  - { offsetInCU: 0x17F20, offset: 0x17F20, size: 0x8, addend: 0x0, symName: __ZNKSt3__122__compressed_pair_elemIP6PersonLi0ELb0EE5__getB8ue170006Ev, symObjAddr: 0x9734, symBinAddr: 0x10000ACE4, symSize: 0x14 }
  - { offsetInCU: 0x17F62, offset: 0x17F62, size: 0x8, addend: 0x0, symName: __ZNSt3__16vectorI6PersonNS_9allocatorIS1_EEE21_ConstructTransactionC1B8ue170006ERS4_m, symObjAddr: 0x9748, symBinAddr: 0x10000ACF8, symSize: 0x3C }
  - { offsetInCU: 0x17FAA, offset: 0x17FAA, size: 0x8, addend: 0x0, symName: __ZNSt3__16vectorI6PersonNS_9allocatorIS1_EEE21_ConstructTransactionD1B8ue170006Ev, symObjAddr: 0x9804, symBinAddr: 0x10000ADB4, symSize: 0x2C }
  - { offsetInCU: 0x17FD4, offset: 0x17FD4, size: 0x8, addend: 0x0, symName: __ZNSt3__16vectorI6PersonNS_9allocatorIS1_EEE21_ConstructTransactionC2B8ue170006ERS4_m, symObjAddr: 0x9830, symBinAddr: 0x10000ADE0, symSize: 0x44 }
  - { offsetInCU: 0x1803F, offset: 0x1803F, size: 0x8, addend: 0x0, symName: __ZNSt3__14pairIPK6PersonS3_EC1B8ue170006IS3_S3_LPv0EEEOT_OT0_, symObjAddr: 0x9A84, symBinAddr: 0x10000B034, symSize: 0x3C }
  - { offsetInCU: 0x1809D, offset: 0x1809D, size: 0x8, addend: 0x0, symName: __ZNSt3__14pairIPK6PersonS3_EC2B8ue170006IS3_S3_LPv0EEEOT_OT0_, symObjAddr: 0x9AC0, symBinAddr: 0x10000B070, symSize: 0x34 }
  - { offsetInCU: 0x180FB, offset: 0x180FB, size: 0x8, addend: 0x0, symName: __ZNSt3__118__unwrap_iter_implIPK6PersonLb1EE8__unwrapB8ue170006ES3_, symObjAddr: 0x9AF4, symBinAddr: 0x10000B0A4, symSize: 0x24 }
  - { offsetInCU: 0x1811E, offset: 0x1811E, size: 0x8, addend: 0x0, symName: __ZNSt3__129_AllocatorDestroyRangeReverseINS_9allocatorI6PersonEEPS2_EC1B8ue170006ERS3_RS4_S7_, symObjAddr: 0x9B78, symBinAddr: 0x10000B128, symSize: 0x44 }
  - { offsetInCU: 0x18175, offset: 0x18175, size: 0x8, addend: 0x0, symName: __ZNSt3__116allocator_traitsINS_9allocatorI6PersonEEE9constructB8ue170006IS2_JRKS2_EvEEvRS3_PT_DpOT0_, symObjAddr: 0x9BBC, symBinAddr: 0x10000B16C, symSize: 0x34 }
  - { offsetInCU: 0x181CC, offset: 0x181CC, size: 0x8, addend: 0x0, symName: __ZNSt3__128__exception_guard_exceptionsINS_29_AllocatorDestroyRangeReverseINS_9allocatorI6PersonEEPS3_EEE10__completeB8ue170006Ev, symObjAddr: 0x9BF0, symBinAddr: 0x10000B1A0, symSize: 0x1C }
  - { offsetInCU: 0x181F2, offset: 0x181F2, size: 0x8, addend: 0x0, symName: __ZNSt3__128__exception_guard_exceptionsINS_29_AllocatorDestroyRangeReverseINS_9allocatorI6PersonEEPS3_EEED1B8ue170006Ev, symObjAddr: 0x9C0C, symBinAddr: 0x10000B1BC, symSize: 0x2C }
  - { offsetInCU: 0x1821C, offset: 0x1821C, size: 0x8, addend: 0x0, symName: __ZNSt3__128__exception_guard_exceptionsINS_29_AllocatorDestroyRangeReverseINS_9allocatorI6PersonEEPS3_EEEC1B8ue170006ES6_, symObjAddr: 0x9C38, symBinAddr: 0x10000B1E8, symSize: 0x34 }
  - { offsetInCU: 0x18255, offset: 0x18255, size: 0x8, addend: 0x0, symName: __ZNSt3__128__exception_guard_exceptionsINS_29_AllocatorDestroyRangeReverseINS_9allocatorI6PersonEEPS3_EEEC2B8ue170006ES6_, symObjAddr: 0x9C6C, symBinAddr: 0x10000B21C, symSize: 0x30 }
  - { offsetInCU: 0x1828E, offset: 0x1828E, size: 0x8, addend: 0x0, symName: __ZNSt3__129_AllocatorDestroyRangeReverseINS_9allocatorI6PersonEEPS2_EC2B8ue170006ERS3_RS4_S7_, symObjAddr: 0x9C9C, symBinAddr: 0x10000B24C, symSize: 0x38 }
  - { offsetInCU: 0x182E5, offset: 0x182E5, size: 0x8, addend: 0x0, symName: __ZNSt3__19allocatorI6PersonE9constructB8ue170006IS1_JRKS1_EEEvPT_DpOT0_, symObjAddr: 0x9CD4, symBinAddr: 0x10000B284, symSize: 0x30 }
  - { offsetInCU: 0x1833B, offset: 0x1833B, size: 0x8, addend: 0x0, symName: __ZNSt3__128__exception_guard_exceptionsINS_29_AllocatorDestroyRangeReverseINS_9allocatorI6PersonEEPS3_EEED2B8ue170006Ev, symObjAddr: 0x9D04, symBinAddr: 0x10000B2B4, symSize: 0x50 }
  - { offsetInCU: 0x18365, offset: 0x18365, size: 0x8, addend: 0x0, symName: __ZNKSt3__129_AllocatorDestroyRangeReverseINS_9allocatorI6PersonEEPS2_EclB8ue170006Ev, symObjAddr: 0x9D54, symBinAddr: 0x10000B304, symSize: 0x68 }
  - { offsetInCU: 0x1838B, offset: 0x1838B, size: 0x8, addend: 0x0, symName: __ZNSt3__116reverse_iteratorIP6PersonEC1B8ue170006ES2_, symObjAddr: 0x9E2C, symBinAddr: 0x10000B3DC, symSize: 0x34 }
  - { offsetInCU: 0x183C3, offset: 0x183C3, size: 0x8, addend: 0x0, symName: __ZNSt3__116allocator_traitsINS_9allocatorI6PersonEEE7destroyB8ue170006IS2_vEEvRS3_PT_, symObjAddr: 0x9EA8, symBinAddr: 0x10000B458, symSize: 0x2C }
  - { offsetInCU: 0x18400, offset: 0x18400, size: 0x8, addend: 0x0, symName: __ZNSt3__116reverse_iteratorIP6PersonEppB8ue170006Ev, symObjAddr: 0x9EF8, symBinAddr: 0x10000B4A8, symSize: 0x20 }
  - { offsetInCU: 0x18426, offset: 0x18426, size: 0x8, addend: 0x0, symName: __ZNKSt3__116reverse_iteratorIP6PersonE4baseB8ue170006Ev, symObjAddr: 0x9F18, symBinAddr: 0x10000B4C8, symSize: 0x18 }
  - { offsetInCU: 0x1844C, offset: 0x1844C, size: 0x8, addend: 0x0, symName: __ZNSt3__19allocatorI6PersonE7destroyB8ue170006EPS1_, symObjAddr: 0x9F30, symBinAddr: 0x10000B4E0, symSize: 0x28 }
  - { offsetInCU: 0x18486, offset: 0x18486, size: 0x8, addend: 0x0, symName: __ZNSt3__119__to_address_helperINS_16reverse_iteratorIP6PersonEEvE6__callB8ue170006ERKS4_, symObjAddr: 0x9F58, symBinAddr: 0x10000B508, symSize: 0x38 }
  - { offsetInCU: 0x184A9, offset: 0x184A9, size: 0x8, addend: 0x0, symName: __ZNKSt3__116reverse_iteratorIP6PersonEptB8ue170006Ev, symObjAddr: 0x9F90, symBinAddr: 0x10000B540, symSize: 0x24 }
  - { offsetInCU: 0x184CF, offset: 0x184CF, size: 0x8, addend: 0x0, symName: __ZNKSt3__116reverse_iteratorIP6PersonEdeB8ue170006Ev, symObjAddr: 0x9FB4, symBinAddr: 0x10000B564, symSize: 0x28 }
  - { offsetInCU: 0x18503, offset: 0x18503, size: 0x8, addend: 0x0, symName: __ZNSt3__116reverse_iteratorIP6PersonEC2B8ue170006ES2_, symObjAddr: 0x9FDC, symBinAddr: 0x10000B58C, symSize: 0x28 }
  - { offsetInCU: 0x1853B, offset: 0x1853B, size: 0x8, addend: 0x0, symName: __ZNSt3__118__unwrap_iter_implIP6PersonLb1EE8__unwrapB8ue170006ES2_, symObjAddr: 0xA004, symBinAddr: 0x10000B5B4, symSize: 0x24 }
  - { offsetInCU: 0x1855E, offset: 0x1855E, size: 0x8, addend: 0x0, symName: __ZNSt3__118__unwrap_iter_implIP6PersonLb1EE8__rewrapB8ue170006ES2_S2_, symObjAddr: 0xA028, symBinAddr: 0x10000B5D8, symSize: 0x50 }
  - { offsetInCU: 0x1858F, offset: 0x1858F, size: 0x8, addend: 0x0, symName: __ZNSt3__16vectorI6PersonNS_9allocatorIS1_EEE21_ConstructTransactionD2B8ue170006Ev, symObjAddr: 0xA078, symBinAddr: 0x10000B628, symSize: 0x20 }
  - { offsetInCU: 0x185B9, offset: 0x185B9, size: 0x8, addend: 0x0, symName: __ZNSt3__128__exception_guard_exceptionsINS_6vectorI6PersonNS_9allocatorIS2_EEE16__destroy_vectorEED2B8ue170006Ev, symObjAddr: 0xA098, symBinAddr: 0x10000B648, symSize: 0x50 }
  - { offsetInCU: 0x185E3, offset: 0x185E3, size: 0x8, addend: 0x0, symName: __ZNSt3__16vectorI6PersonNS_9allocatorIS1_EEE16__destroy_vectorclB8ue170006Ev, symObjAddr: 0xA0E8, symBinAddr: 0x10000B698, symSize: 0x90 }
  - { offsetInCU: 0x18609, offset: 0x18609, size: 0x8, addend: 0x0, symName: __ZNSt3__16vectorI6PersonNS_9allocatorIS1_EEE7__clearB8ue170006Ev, symObjAddr: 0xA178, symBinAddr: 0x10000B728, symSize: 0x28 }
  - { offsetInCU: 0x1862F, offset: 0x1862F, size: 0x8, addend: 0x0, symName: __ZNKSt3__16vectorI6PersonNS_9allocatorIS1_EEE17__annotate_deleteB8ue170006Ev, symObjAddr: 0xA1A0, symBinAddr: 0x10000B750, symSize: 0xB8 }
  - { offsetInCU: 0x18655, offset: 0x18655, size: 0x8, addend: 0x0, symName: __ZNSt3__116allocator_traitsINS_9allocatorI6PersonEEE10deallocateB8ue170006ERS3_PS2_m, symObjAddr: 0xA258, symBinAddr: 0x10000B808, symSize: 0x34 }
  - { offsetInCU: 0x18697, offset: 0x18697, size: 0x8, addend: 0x0, symName: __ZNSt3__16vectorI6PersonNS_9allocatorIS1_EEE22__base_destruct_at_endB8ue170006EPS1_, symObjAddr: 0xA28C, symBinAddr: 0x10000B83C, symSize: 0x8C }
  - { offsetInCU: 0x186DB, offset: 0x186DB, size: 0x8, addend: 0x0, symName: __ZNKSt3__16vectorI6PersonNS_9allocatorIS1_EEE4sizeB8ue170006Ev, symObjAddr: 0xA318, symBinAddr: 0x10000B8C8, symSize: 0x28 }
  - { offsetInCU: 0x18701, offset: 0x18701, size: 0x8, addend: 0x0, symName: __ZNSt3__19allocatorI6PersonE10deallocateB8ue170006EPS1_m, symObjAddr: 0xA340, symBinAddr: 0x10000B8F0, symSize: 0x40 }
  - { offsetInCU: 0x18743, offset: 0x18743, size: 0x8, addend: 0x0, symName: __ZNSt3__16vectorI6PersonNS_9allocatorIS1_EEED2B8ue170006Ev, symObjAddr: 0xA380, symBinAddr: 0x10000B930, symSize: 0x40 }
  - { offsetInCU: 0x1876D, offset: 0x1876D, size: 0x8, addend: 0x0, symName: __ZNSt3__16vectorI6PersonNS_9allocatorIS1_EEE11__make_iterB8ue170006EPS1_, symObjAddr: 0xA3C0, symBinAddr: 0x10000B970, symSize: 0x30 }
  - { offsetInCU: 0x187A2, offset: 0x187A2, size: 0x8, addend: 0x0, symName: __ZNSt3__111__wrap_iterIP6PersonEC1B8ue170006ES2_, symObjAddr: 0xA3F0, symBinAddr: 0x10000B9A0, symSize: 0x34 }
  - { offsetInCU: 0x187DA, offset: 0x187DA, size: 0x8, addend: 0x0, symName: __ZNSt3__111__wrap_iterIP6PersonEC2B8ue170006ES2_, symObjAddr: 0xA424, symBinAddr: 0x10000B9D4, symSize: 0x20 }
  - { offsetInCU: 0x1881D, offset: 0x1881D, size: 0x8, addend: 0x0, symName: '__ZZ5test5vENK3$_5clERK6PersonS2_', symObjAddr: 0xAA64, symBinAddr: 0x10000C014, symSize: 0x94 }
  - { offsetInCU: 0x18863, offset: 0x18863, size: 0x8, addend: 0x0, symName: __ZNSt3__18_IterOpsINS_17_ClassicAlgPolicyEE9iter_swapB8ue170006IRP6PersonS6_EEvOT_OT0_, symObjAddr: 0xAAF8, symBinAddr: 0x10000C0A8, symSize: 0x34 }
  - { offsetInCU: 0x188AC, offset: 0x188AC, size: 0x8, addend: 0x0, symName: __ZNSt3__18_IterOpsINS_17_ClassicAlgPolicyEE9iter_swapB8ue170006IRP6PersonS5_EEvOT_OT0_, symObjAddr: 0xB0D0, symBinAddr: 0x10000C680, symSize: 0x34 }
  - { offsetInCU: 0x188EF, offset: 0x188EF, size: 0x8, addend: 0x0, symName: __ZNK6Person8get_nameEv, symObjAddr: 0xBDB0, symBinAddr: 0x10000D360, symSize: 0x38 }
  - { offsetInCU: 0x18915, offset: 0x18915, size: 0x8, addend: 0x0, symName: __ZNKSt3__112basic_stringIcNS_11char_traitsIcEENS_9allocatorIcEEE7compareB8ue170006ERKS5_, symObjAddr: 0xBDE8, symBinAddr: 0x10000D398, symSize: 0x4C }
  - { offsetInCU: 0x1894C, offset: 0x1894C, size: 0x8, addend: 0x0, symName: __ZNKSt3__112basic_stringIcNS_11char_traitsIcEENS_9allocatorIcEEE7compareINS_17basic_string_viewIcS2_EELi0EEEiRKT_, symObjAddr: 0xBE34, symBinAddr: 0x10000D3E4, symSize: 0x12C }
  - { offsetInCU: 0x189CF, offset: 0x189CF, size: 0x8, addend: 0x0, symName: __ZNKSt3__112basic_stringIcNS_11char_traitsIcEENS_9allocatorIcEEEcvNS_17basic_string_viewIcS2_EEB8ue170006Ev, symObjAddr: 0xBF60, symBinAddr: 0x10000D510, symSize: 0x50 }
  - { offsetInCU: 0x189F5, offset: 0x189F5, size: 0x8, addend: 0x0, symName: __ZNKSt3__117basic_string_viewIcNS_11char_traitsIcEEE4sizeB8ue170006Ev, symObjAddr: 0xBFB0, symBinAddr: 0x10000D560, symSize: 0x18 }
  - { offsetInCU: 0x18A1B, offset: 0x18A1B, size: 0x8, addend: 0x0, symName: __ZNSt3__111char_traitsIcE7compareB8ue170006EPKcS3_m, symObjAddr: 0xBFC8, symBinAddr: 0x10000D578, symSize: 0x34 }
  - { offsetInCU: 0x18A5A, offset: 0x18A5A, size: 0x8, addend: 0x0, symName: __ZNKSt3__117basic_string_viewIcNS_11char_traitsIcEEE4dataB8ue170006Ev, symObjAddr: 0xBFFC, symBinAddr: 0x10000D5AC, symSize: 0x18 }
  - { offsetInCU: 0x18A80, offset: 0x18A80, size: 0x8, addend: 0x0, symName: __ZNSt3__117basic_string_viewIcNS_11char_traitsIcEEEC1B8ue170006EPKcm, symObjAddr: 0xC014, symBinAddr: 0x10000D5C4, symSize: 0x3C }
  - { offsetInCU: 0x18AC8, offset: 0x18AC8, size: 0x8, addend: 0x0, symName: __ZNSt3__117basic_string_viewIcNS_11char_traitsIcEEEC2B8ue170006EPKcm, symObjAddr: 0xC050, symBinAddr: 0x10000D600, symSize: 0x2C }
  - { offsetInCU: 0x18B10, offset: 0x18B10, size: 0x8, addend: 0x0, symName: __ZN6PersonaSERKS_, symObjAddr: 0xC11C, symBinAddr: 0x10000D6CC, symSize: 0x40 }
  - { offsetInCU: 0x18B47, offset: 0x18B47, size: 0x8, addend: 0x0, symName: __ZNSt3__18_IterOpsINS_17_ClassicAlgPolicyEE11__iter_moveB8ue170006IRP6PersonEENS_9enable_ifIXsr12is_referenceIDTdeclsr3stdE7declvalIRT_EEEEE5valueEDTclsr3stdE4movedeclsr3stdE7declvalIS9_EEEEE4typeEOS8_, symObjAddr: 0xC2FC, symBinAddr: 0x10000D8AC, symSize: 0x28 }
  - { offsetInCU: 0x18B73, offset: 0x18B73, size: 0x8, addend: 0x0, symName: __ZNSt3__18_IterOpsINS_17_ClassicAlgPolicyEE25__validate_iter_referenceB8ue170006IRP6PersonEEvv, symObjAddr: 0xC324, symBinAddr: 0x10000D8D4, symSize: 0x4 }
  - { offsetInCU: 0x18B91, offset: 0x18B91, size: 0x8, addend: 0x0, symName: __ZNSt3__18_IterOpsINS_17_ClassicAlgPolicyEE4nextB8ue170006IP6PersonEET_S6_S6_, symObjAddr: 0xC328, symBinAddr: 0x10000D8D8, symSize: 0x18 }
  - { offsetInCU: 0x18BC8, offset: 0x18BC8, size: 0x8, addend: 0x0, symName: __ZNSt3__18_IterOpsINS_17_ClassicAlgPolicyEE9iter_swapB8ue170006IP6PersonS5_EEvOT_OT0_, symObjAddr: 0xD360, symBinAddr: 0x10000E910, symSize: 0x34 }
  - { offsetInCU: 0x18C2E, offset: 0x18C2E, size: 0x8, addend: 0x0, symName: __ZNSt3__14pairIP6PersonbEC1B8ue170006IRS2_RbLPv0EEEOT_OT0_, symObjAddr: 0xD3B0, symBinAddr: 0x10000E960, symSize: 0x3C }
  - { offsetInCU: 0x18C8C, offset: 0x18C8C, size: 0x8, addend: 0x0, symName: __ZNSt3__14pairIP6PersonbEC2B8ue170006IRS2_RbLPv0EEEOT_OT0_, symObjAddr: 0xD3EC, symBinAddr: 0x10000E99C, symSize: 0x38 }
  - { offsetInCU: 0x18CEA, offset: 0x18CEA, size: 0x8, addend: 0x0, symName: __ZNSt3__118__unwrap_iter_implINS_11__wrap_iterIP6PersonEELb1EE8__unwrapB8ue170006ES4_, symObjAddr: 0xD424, symBinAddr: 0x10000E9D4, symSize: 0x28 }
  - { offsetInCU: 0x18D19, offset: 0x18D19, size: 0x8, addend: 0x0, symName: __ZNSt3__119__to_address_helperINS_11__wrap_iterIP6PersonEEvE6__callB8ue170006ERKS4_, symObjAddr: 0xD470, symBinAddr: 0x10000EA20, symSize: 0x30 }
  - { offsetInCU: 0x18D3C, offset: 0x18D3C, size: 0x8, addend: 0x0, symName: __ZNSt3__114pointer_traitsINS_11__wrap_iterIP6PersonEEE10to_addressB8ue170006ES4_, symObjAddr: 0xD4A0, symBinAddr: 0x10000EA50, symSize: 0x2C }
  - { offsetInCU: 0x18D5F, offset: 0x18D5F, size: 0x8, addend: 0x0, symName: __ZNKSt3__16vectorIiNS_9allocatorIiEEE11__make_iterB8ue170006EPKi, symObjAddr: 0xD4CC, symBinAddr: 0x10000EA7C, symSize: 0x30 }
  - { offsetInCU: 0x18D94, offset: 0x18D94, size: 0x8, addend: 0x0, symName: __ZNSt3__111__wrap_iterIPKiEC1B8ue170006ES2_, symObjAddr: 0xD4FC, symBinAddr: 0x10000EAAC, symSize: 0x34 }
  - { offsetInCU: 0x18DCC, offset: 0x18DCC, size: 0x8, addend: 0x0, symName: __ZNSt3__111__wrap_iterIPKiEC2B8ue170006ES2_, symObjAddr: 0xD530, symBinAddr: 0x10000EAE0, symSize: 0x20 }
  - { offsetInCU: 0x18E0F, offset: 0x18E0F, size: 0x8, addend: 0x0, symName: '__ZZ10in_betweenRKNSt3__16vectorIiNS_9allocatorIiEEEEiiENK3$_6clEi', symObjAddr: 0xD550, symBinAddr: 0x10000EB00, symSize: 0x60 }
  - { offsetInCU: 0x18E47, offset: 0x18E47, size: 0x8, addend: 0x0, symName: __ZNKSt3__111__wrap_iterIPKiEdeB8ue170006Ev, symObjAddr: 0xD5B0, symBinAddr: 0x10000EB60, symSize: 0x18 }
  - { offsetInCU: 0x18E6D, offset: 0x18E6D, size: 0x8, addend: 0x0, symName: __ZNSt3__111__wrap_iterIPKiEppB8ue170006Ev, symObjAddr: 0xD5C8, symBinAddr: 0x10000EB78, symSize: 0x20 }
  - { offsetInCU: 0x18E93, offset: 0x18E93, size: 0x8, addend: 0x0, symName: __ZNSt3__16vectorIiNS_9allocatorIiEEEC2Em, symObjAddr: 0xD5E8, symBinAddr: 0x10000EB98, symSize: 0xD4 }
  - { offsetInCU: 0x18EE3, offset: 0x18EE3, size: 0x8, addend: 0x0, symName: __ZNSt3__16vectorIiNS_9allocatorIiEEE18__construct_at_endEm, symObjAddr: 0xD6BC, symBinAddr: 0x10000EC6C, symSize: 0xC8 }
  - { offsetInCU: 0x18F55, offset: 0x18F55, size: 0x8, addend: 0x0, symName: __ZNSt3__116allocator_traitsINS_9allocatorIiEEE9constructB8ue170006IiJEvEEvRS2_PT_DpOT0_, symObjAddr: 0xD784, symBinAddr: 0x10000ED34, symSize: 0x2C }
  - { offsetInCU: 0x18F97, offset: 0x18F97, size: 0x8, addend: 0x0, symName: __ZNSt3__19allocatorIiE9constructB8ue170006IiJEEEvPT_DpOT0_, symObjAddr: 0xD7B0, symBinAddr: 0x10000ED60, symSize: 0x1C }
...
